
Optional file vector_offset_init.o not found
Archive member included to satisfy reference by file (symbol)

g:/embedded tools/pic/xc32 compiler/bin/bin/../../lib/gcc/pic32mx/8.3.1/../../../../pic32mx/lib/fpu64\libpic32.a(default-on-reset.o)
                              C:\Users\HP\AppData\Local\Temp\ccSwWAzT.o (_on_reset)
g:/embedded tools/pic/xc32 compiler/bin/bin/../../lib/gcc/pic32mx/8.3.1/../../../../pic32mx/lib/fpu64\libpic32.a(default-on-bootstrap.o)
                              C:\Users\HP\AppData\Local\Temp\ccSwWAzT.o (_on_bootstrap)
g:/embedded tools/pic/xc32 compiler/bin/bin/../../lib/gcc/pic32mx/8.3.1/../../../../pic32mx/lib/fpu64\libpic32.a(default-nmi-handler.o)
                              C:\Users\HP\AppData\Local\Temp\ccSwWAzT.o (_nmi_handler)
g:/embedded tools/pic/xc32 compiler/bin/bin/../../lib/gcc/pic32mx/8.3.1/../../../../pic32mx/lib/fpu64\libpic32.a(pic32_data_init_core.o)
                              C:\Users\HP\AppData\Local\Temp\ccSwWAzT.o (__pic32_data_init)
g:/embedded tools/pic/xc32 compiler/bin/bin/../../lib/gcc/pic32mx/8.3.1/../../../../pic32mx/lib/fpu64\libpic32.a(general-exception.o)
                              C:\Users\HP\AppData\Local\Temp\ccSwWAzT.o (_general_exception_context)
g:/embedded tools/pic/xc32 compiler/bin/bin/../../lib/gcc/pic32mx/8.3.1/../../../../pic32mx/lib/fpu64\libpic32.a(defaultinterrupt.o)
                              C:\Users\HP\AppData\Local\Temp\cc2iFMcc.o (_DefaultInterrupt)
g:/embedded tools/pic/xc32 compiler/bin/bin/../../lib/gcc/pic32mx/8.3.1/../../../../pic32mx/lib/fpu64\libc-musl.a(stdin.o)
                              build/default/production/_ext/1171490990/initialization.o (_stdin)
g:/embedded tools/pic/xc32 compiler/bin/bin/../../lib/gcc/pic32mx/8.3.1/../../../../pic32mx/lib/fpu64\libc-musl.a(stdout.o)
                              build/default/production/_ext/1171490990/initialization.o (_stdout)
g:/embedded tools/pic/xc32 compiler/bin/bin/../../lib/gcc/pic32mx/8.3.1/../../../../pic32mx/lib/fpu64\libc-musl.a(puts.o)
                              build/default/production/_ext/1360937237/main.o (puts)
g:/embedded tools/pic/xc32 compiler/bin/bin/../../lib/gcc/pic32mx/8.3.1/../../../../pic32mx/lib/fpu64\libc-musl.a(setbuf.o)
                              build/default/production/_ext/1171490990/initialization.o (setbuf)
g:/embedded tools/pic/xc32 compiler/bin/bin/../../lib/gcc/pic32mx/8.3.1/../../../../pic32mx/lib/fpu64\libc-musl.a(fputs.o)
                              g:/embedded tools/pic/xc32 compiler/bin/bin/../../lib/gcc/pic32mx/8.3.1/../../../../pic32mx/lib/fpu64\libc-musl.a(puts.o) (fputs)
g:/embedded tools/pic/xc32 compiler/bin/bin/../../lib/gcc/pic32mx/8.3.1/../../../../pic32mx/lib/fpu64\libc-musl.a(__io_init_needed.o)
                              g:/embedded tools/pic/xc32 compiler/bin/bin/../../lib/gcc/pic32mx/8.3.1/../../../../pic32mx/lib/fpu64\libc-musl.a(stdout.o) (__io_init_needed)
g:/embedded tools/pic/xc32 compiler/bin/bin/../../lib/gcc/pic32mx/8.3.1/../../../../pic32mx/lib/fpu64\libc-musl.a(__io_rw_needed.o)
                              g:/embedded tools/pic/xc32 compiler/bin/bin/../../lib/gcc/pic32mx/8.3.1/../../../../pic32mx/lib/fpu64\libc-musl.a(stdin.o) (__io_rw_needed)
g:/embedded tools/pic/xc32 compiler/bin/bin/../../lib/gcc/pic32mx/8.3.1/../../../../pic32mx/lib/fpu64\libc-musl.a(__out.o)
                              g:/embedded tools/pic/xc32 compiler/bin/bin/../../lib/gcc/pic32mx/8.3.1/../../../../pic32mx/lib/fpu64\libc-musl.a(stdout.o) (__stdio_write_unbuffered)
g:/embedded tools/pic/xc32 compiler/bin/bin/../../lib/gcc/pic32mx/8.3.1/../../../../pic32mx/lib/fpu64\libc-musl.a(__stdio_close.o)
                              g:/embedded tools/pic/xc32 compiler/bin/bin/../../lib/gcc/pic32mx/8.3.1/../../../../pic32mx/lib/fpu64\libc-musl.a(stdout.o) (__stdio_close_rw)
g:/embedded tools/pic/xc32 compiler/bin/bin/../../lib/gcc/pic32mx/8.3.1/../../../../pic32mx/lib/fpu64\libc-musl.a(__stdio_read.o)
                              g:/embedded tools/pic/xc32 compiler/bin/bin/../../lib/gcc/pic32mx/8.3.1/../../../../pic32mx/lib/fpu64\libc-musl.a(stdin.o) (__stdio_read)
g:/embedded tools/pic/xc32 compiler/bin/bin/../../lib/gcc/pic32mx/8.3.1/../../../../pic32mx/lib/fpu64\libc-musl.a(__towrite_rw.o)
                              g:/embedded tools/pic/xc32 compiler/bin/bin/../../lib/gcc/pic32mx/8.3.1/../../../../pic32mx/lib/fpu64\libc-musl.a(__io_rw_needed.o) (__towrite_rw_needed)
g:/embedded tools/pic/xc32 compiler/bin/bin/../../lib/gcc/pic32mx/8.3.1/../../../../pic32mx/lib/fpu64\libc-musl.a(fwrite.o)
                              g:/embedded tools/pic/xc32 compiler/bin/bin/../../lib/gcc/pic32mx/8.3.1/../../../../pic32mx/lib/fpu64\libc-musl.a(fputs.o) (fwrite)
g:/embedded tools/pic/xc32 compiler/bin/bin/../../lib/gcc/pic32mx/8.3.1/../../../../pic32mx/lib/fpu64\libc-musl.a(putc.o)
                              g:/embedded tools/pic/xc32 compiler/bin/bin/../../lib/gcc/pic32mx/8.3.1/../../../../pic32mx/lib/fpu64\libc-musl.a(puts.o) (putc_unlocked)
g:/embedded tools/pic/xc32 compiler/bin/bin/../../lib/gcc/pic32mx/8.3.1/../../../../pic32mx/lib/fpu64\libc-musl.a(setvbuf.o)
                              g:/embedded tools/pic/xc32 compiler/bin/bin/../../lib/gcc/pic32mx/8.3.1/../../../../pic32mx/lib/fpu64\libc-musl.a(setbuf.o) (setvbuf)
g:/embedded tools/pic/xc32 compiler/bin/bin/../../lib/gcc/pic32mx/8.3.1/../../../../pic32mx/lib/fpu64\libc-musl.a(memcpy.o)
                              g:/embedded tools/pic/xc32 compiler/bin/bin/../../lib/gcc/pic32mx/8.3.1/../../../../pic32mx/lib/fpu64\libc-musl.a(__out.o) (memcpy)
g:/embedded tools/pic/xc32 compiler/bin/bin/../../lib/gcc/pic32mx/8.3.1/../../../../pic32mx/lib/fpu64\libc-musl.a(strlen.o)
                              g:/embedded tools/pic/xc32 compiler/bin/bin/../../lib/gcc/pic32mx/8.3.1/../../../../pic32mx/lib/fpu64\libc-musl.a(fputs.o) (strlen)
g:/embedded tools/pic/xc32 compiler/bin/bin/../../lib/gcc/pic32mx/8.3.1/../../../../pic32mx/lib/fpu64\libc-musl.a(readv.o)
                              g:/embedded tools/pic/xc32 compiler/bin/bin/../../lib/gcc/pic32mx/8.3.1/../../../../pic32mx/lib/fpu64\libc-musl.a(__stdio_read.o) (readv)
g:/embedded tools/pic/xc32 compiler/bin/bin/../../lib/gcc/pic32mx/8.3.1/../../../../pic32mx/lib/fpu64\libc-musl.a(malloc.o)
                              g:/embedded tools/pic/xc32 compiler/bin/bin/../../lib/gcc/pic32mx/8.3.1/../../../../pic32mx/lib/fpu64\libc-musl.a(setvbuf.o) (malloc)
g:/embedded tools/pic/xc32 compiler/bin/bin/../../lib/gcc/pic32mx/8.3.1/../../../../pic32mx/lib/fpu64\libc-musl.a(expand_heap.o)
                              g:/embedded tools/pic/xc32 compiler/bin/bin/../../lib/gcc/pic32mx/8.3.1/../../../../pic32mx/lib/fpu64\libc-musl.a(malloc.o) (__expand_heap)
g:/embedded tools/pic/xc32 compiler/bin/bin/../../lib/gcc/pic32mx/8.3.1/../../../../pic32mx/lib/fpu64\libc-musl.a(__fopen_rw.o)
                              g:/embedded tools/pic/xc32 compiler/bin/bin/../../lib/gcc/pic32mx/8.3.1/../../../../pic32mx/lib/fpu64\libc-musl.a(__io_rw_needed.o) (__fopen_rw_needed)
g:/embedded tools/pic/xc32 compiler/bin/bin/../../lib/gcc/pic32mx/8.3.1/../../../../pic32mx/lib/fpu64\libc-musl.a(__ftello_rw.o)
                              g:/embedded tools/pic/xc32 compiler/bin/bin/../../lib/gcc/pic32mx/8.3.1/../../../../pic32mx/lib/fpu64\libc-musl.a(__io_rw_needed.o) (__ftello_adj_rw_needed)
g:/embedded tools/pic/xc32 compiler/bin/bin/../../lib/gcc/pic32mx/8.3.1/../../../../pic32mx/lib/fpu64\libc-musl.a(__init_stdio.o)
                              g:/embedded tools/pic/xc32 compiler/bin/bin/../../lib/gcc/pic32mx/8.3.1/../../../../pic32mx/lib/fpu64\libc-musl.a(__io_init_needed.o) (__init_stdio_needed)
g:/embedded tools/pic/xc32 compiler/bin/bin/../../lib/gcc/pic32mx/8.3.1/../../../../pic32mx/lib/fpu64\libc-musl.a(__io_buf_needed.o)
                              g:/embedded tools/pic/xc32 compiler/bin/bin/../../lib/gcc/pic32mx/8.3.1/../../../../pic32mx/lib/fpu64\libc-musl.a(__io_rw_needed.o) (__io_buf_needed)
g:/embedded tools/pic/xc32 compiler/bin/bin/../../lib/gcc/pic32mx/8.3.1/../../../../pic32mx/lib/fpu64\libc-musl.a(__io_file_needed.o)
                              g:/embedded tools/pic/xc32 compiler/bin/bin/../../lib/gcc/pic32mx/8.3.1/../../../../pic32mx/lib/fpu64\libc-musl.a(__io_init_needed.o) (__io_file_needed)
g:/embedded tools/pic/xc32 compiler/bin/bin/../../lib/gcc/pic32mx/8.3.1/../../../../pic32mx/lib/fpu64\libc-musl.a(__io_std_needed.o)
                              g:/embedded tools/pic/xc32 compiler/bin/bin/../../lib/gcc/pic32mx/8.3.1/../../../../pic32mx/lib/fpu64\libc-musl.a(__io_buf_needed.o) (__io_std_needed)
g:/embedded tools/pic/xc32 compiler/bin/bin/../../lib/gcc/pic32mx/8.3.1/../../../../pic32mx/lib/fpu64\libc-musl.a(__putc.o)
                              g:/embedded tools/pic/xc32 compiler/bin/bin/../../lib/gcc/pic32mx/8.3.1/../../../../pic32mx/lib/fpu64\libc-musl.a(__io_buf_needed.o) (__putc_needed)
g:/embedded tools/pic/xc32 compiler/bin/bin/../../lib/gcc/pic32mx/8.3.1/../../../../pic32mx/lib/fpu64\libc-musl.a(__stderr.o)
                              g:/embedded tools/pic/xc32 compiler/bin/bin/../../lib/gcc/pic32mx/8.3.1/../../../../pic32mx/lib/fpu64\libc-musl.a(__io_std_needed.o) (__init_stderr_needed)
g:/embedded tools/pic/xc32 compiler/bin/bin/../../lib/gcc/pic32mx/8.3.1/../../../../pic32mx/lib/fpu64\libc-musl.a(__stdio_exit.o)
                              g:/embedded tools/pic/xc32 compiler/bin/bin/../../lib/gcc/pic32mx/8.3.1/../../../../pic32mx/lib/fpu64\libc-musl.a(__io_buf_needed.o) (__stdio_exit_needed)
g:/embedded tools/pic/xc32 compiler/bin/bin/../../lib/gcc/pic32mx/8.3.1/../../../../pic32mx/lib/fpu64\libc-musl.a(__stdio_write.o)
                              g:/embedded tools/pic/xc32 compiler/bin/bin/../../lib/gcc/pic32mx/8.3.1/../../../../pic32mx/lib/fpu64\libc-musl.a(setvbuf.o) (__stdio_write_buffered)
g:/embedded tools/pic/xc32 compiler/bin/bin/../../lib/gcc/pic32mx/8.3.1/../../../../pic32mx/lib/fpu64\libc-musl.a(__stdout.o)
                              g:/embedded tools/pic/xc32 compiler/bin/bin/../../lib/gcc/pic32mx/8.3.1/../../../../pic32mx/lib/fpu64\libc-musl.a(__io_std_needed.o) (__init_stdout_needed)
g:/embedded tools/pic/xc32 compiler/bin/bin/../../lib/gcc/pic32mx/8.3.1/../../../../pic32mx/lib/fpu64\libc-musl.a(__towrite.o)
                              g:/embedded tools/pic/xc32 compiler/bin/bin/../../lib/gcc/pic32mx/8.3.1/../../../../pic32mx/lib/fpu64\libc-musl.a(__stdio_write.o) (__towrite)
g:/embedded tools/pic/xc32 compiler/bin/bin/../../lib/gcc/pic32mx/8.3.1/../../../../pic32mx/lib/fpu64\libc-musl.a(memset.o)
                              g:/embedded tools/pic/xc32 compiler/bin/bin/../../lib/gcc/pic32mx/8.3.1/../../../../pic32mx/lib/fpu64\libc-musl.a(__fopen_rw.o) (memset)
g:/embedded tools/pic/xc32 compiler/bin/bin/../../lib/gcc/pic32mx/8.3.1/../../../../pic32mx/lib/fpu64\libc-musl.a(writev.o)
                              g:/embedded tools/pic/xc32 compiler/bin/bin/../../lib/gcc/pic32mx/8.3.1/../../../../pic32mx/lib/fpu64\libc-musl.a(__stdio_write.o) (writev)
g:/embedded tools/pic/xc32 compiler/bin/bin/../../lib/gcc/pic32mx/8.3.1/../../../../pic32mx/lib/fpu64\libc-musl.a(libc.o)
                              g:/embedded tools/pic/xc32 compiler/bin/bin/../../lib/gcc/pic32mx/8.3.1/../../../../pic32mx/lib/fpu64\libc-musl.a(malloc.o) (__libc)
g:/embedded tools/pic/xc32 compiler/bin/bin/../../lib/gcc/pic32mx/8.3.1/../../../../pic32mx/lib/fpu64\libc-musl.a(__overflow.o)
                              g:/embedded tools/pic/xc32 compiler/bin/bin/../../lib/gcc/pic32mx/8.3.1/../../../../pic32mx/lib/fpu64\libc-musl.a(__putc.o) (__overflow)
g:/embedded tools/pic/xc32 compiler/bin/bin/../../lib/gcc/pic32mx/8.3.1/../../../../pic32mx/lib/fpu64\libc-musl.a(__fclose.o)
                              g:/embedded tools/pic/xc32 compiler/bin/bin/../../lib/gcc/pic32mx/8.3.1/../../../../pic32mx/lib/fpu64\libc-musl.a(__io_buf_needed.o) (__fclose_needed)
g:/embedded tools/pic/xc32 compiler/bin/bin/../../lib/gcc/pic32mx/8.3.1/../../../../pic32mx/lib/fpu64\libc-musl.a(__fopen.o)
                              g:/embedded tools/pic/xc32 compiler/bin/bin/../../lib/gcc/pic32mx/8.3.1/../../../../pic32mx/lib/fpu64\libc-musl.a(__io_std_needed.o) (__fopen_needed)
g:/embedded tools/pic/xc32 compiler/bin/bin/../../lib/gcc/pic32mx/8.3.1/../../../../pic32mx/lib/fpu64\libc-musl.a(__fseeko.o)
                              g:/embedded tools/pic/xc32 compiler/bin/bin/../../lib/gcc/pic32mx/8.3.1/../../../../pic32mx/lib/fpu64\libc-musl.a(__io_buf_needed.o) (__fseeko_needed)
g:/embedded tools/pic/xc32 compiler/bin/bin/../../lib/gcc/pic32mx/8.3.1/../../../../pic32mx/lib/fpu64\libc-musl.a(__ftello.o)
                              g:/embedded tools/pic/xc32 compiler/bin/bin/../../lib/gcc/pic32mx/8.3.1/../../../../pic32mx/lib/fpu64\libc-musl.a(__io_buf_needed.o) (__ftello_adj_needed)
g:/embedded tools/pic/xc32 compiler/bin/bin/../../lib/gcc/pic32mx/8.3.1/../../../../pic32mx/lib/fpu64\libc-musl.a(__fwrite.o)
                              g:/embedded tools/pic/xc32 compiler/bin/bin/../../lib/gcc/pic32mx/8.3.1/../../../../pic32mx/lib/fpu64\libc-musl.a(__io_std_needed.o) (__fwrite_needed)
g:/embedded tools/pic/xc32 compiler/bin/bin/../../lib/gcc/pic32mx/8.3.1/fpu64\libgcc.a(_lshrdi3.o)
                              g:/embedded tools/pic/xc32 compiler/bin/bin/../../lib/gcc/pic32mx/8.3.1/../../../../pic32mx/lib/fpu64\libc-musl.a(malloc.o) (__lshrdi3)
g:/embedded tools/pic/xc32 compiler/bin/bin/../../lib/gcc/pic32mx/8.3.1/fpu64\libgcc.a(_ashldi3.o)
                              g:/embedded tools/pic/xc32 compiler/bin/bin/../../lib/gcc/pic32mx/8.3.1/../../../../pic32mx/lib/fpu64\libc-musl.a(malloc.o) (__ashldi3)
g:/embedded tools/pic/xc32 compiler/bin/bin/../../lib/gcc/pic32mx/8.3.1/../../../../pic32mx/lib/fpu64\libpic32.a(sbrk.o)
                              g:/embedded tools/pic/xc32 compiler/bin/bin/../../lib/gcc/pic32mx/8.3.1/../../../../pic32mx/lib/fpu64\libc-musl.a(expand_heap.o) (_sbrk)
g:/embedded tools/pic/xc32 compiler/bin/bin/../../lib/gcc/pic32mx/8.3.1/../../../../pic32mx/lib/fpu64\libpic32.a(lseek.o)
                              g:/embedded tools/pic/xc32 compiler/bin/bin/../../lib/gcc/pic32mx/8.3.1/../../../../pic32mx/lib/fpu64\libc-musl.a(__stdio_close.o) (lseek)
g:/embedded tools/pic/xc32 compiler/bin/bin/../../lib/gcc/pic32mx/8.3.1/../../../../pic32mx/lib/fpu64\libpic32.a(close.o)
                              g:/embedded tools/pic/xc32 compiler/bin/bin/../../lib/gcc/pic32mx/8.3.1/../../../../pic32mx/lib/fpu64\libc-musl.a(__stdio_close.o) (close)
g:/embedded tools/pic/xc32 compiler/bin/bin/../../lib/gcc/pic32mx/8.3.1/../../../../pic32mx/lib/fpu64\libpic32.a(errno.o)
                              g:/embedded tools/pic/xc32 compiler/bin/bin/../../lib/gcc/pic32mx/8.3.1/../../../../pic32mx/lib/fpu64\libc-musl.a(malloc.o) (errno)

Optional file vector_offset_init.o not found
g:/embedded tools/pic/xc32 compiler/bin/bin/../../lib/gcc/pic32mx/8.3.1/../../../../pic32mx/lib/fpu64\libpic32.a(pic32_data_init_clear.o)
                              (__dinit_clear_needed)
g:/embedded tools/pic/xc32 compiler/bin/bin/../../lib/gcc/pic32mx/8.3.1/../../../../pic32mx/lib/fpu64\libpic32.a(pic32_data_init_copy.o)
                              (__dinit_copy_needed)

Microchip PIC32 Memory-Usage Report

kseg0 Program-Memory Usage
section                    address  length [bytes]      (dec)  Description
-------                 ----------  -------------------------  -----------
.text._sbrk_init        0x9d000000          0x154         340   
.text.memcpy            0x9d000154           0x2c          44   
.app_excpt              0x9d000180           0x10          16  General-Exception 
.text.alloc_fwd         0x9d000190           0x70         112   
.vectors                0x9d000200           0x60          96   
.dinit                  0x9d000260          0x4f0        1264   
.text.malloc            0x9d000750          0x298         664   
.text.TIMER_1_Handler   0x9d0009e8          0x1d0         464   
.text.TIMER_3_Handler   0x9d000bb8          0x1d0         464   
.text.CHANGE_NOTICE_A_H 0x9d000d88          0x1d0         464   
.text.free              0x9d000f58          0x198         408   
.text.__write_buffered  0x9d0010f0          0x114         276   
.text.__stdio_write_buf 0x9d001204          0x104         260   
.text.GPIO_Initialize   0x9d001308           0xe8         232   
.text.general_exception 0x9d0013f0           0xdc         220   
.text.main              0x9d0014cc           0xd8         216   
.text.__stdio_read      0x9d0015a4           0xcc         204   
.text.GPIO_PinIntEnable 0x9d001670           0xc8         200   
.text.__stdio_close_rw  0x9d001738           0xc0         192   
.text.UART1_Read        0x9d0017f8           0xbc         188   
.text.SYS_Initialize    0x9d0018b4           0xb4         180   
.text.CLK_Initialize    0x9d001968           0xb0         176   
.text._sbrk             0x9d001a18           0xb0         176   
.text.GPIO_PinInterrupt 0x9d001ac8           0xac         172   
.text.setvbuf           0x9d001b74           0xac         172   
.text.unbin             0x9d001c20           0xac         172   
.text.__overflow        0x9d001ccc           0x94         148   
.text.CHANGE_NOTICE_A_I 0x9d001d60           0x84         132   
.text                   0x9d001de4           0x7c         124  App's exec code 
.text.__readv           0x9d001e60           0x7c         124   
.text.__writev          0x9d001edc           0x7c         124   
.text.UART1_Write       0x9d001f58           0x74         116   
.text.alloc_rev         0x9d001fcc           0x74         116   
.text.__putc            0x9d002040           0x70         112   
.text.tmr_callback      0x9d0020b0           0x64         100   
.text.UART1_ErrorClear  0x9d002114           0x60          96   
.text.fwrite            0x9d002174           0x60          96   
.text.__putc_unbuffered 0x9d0021d4           0x60          96   
.text.bin_index         0x9d002234           0x60          96   
.text.CORETIMER_Start   0x9d002294           0x5c          92   
.text.fputs             0x9d0022f0           0x5c          92   
.rodata                 0x9d00234c           0x5c          92  Read-only const 
.text.EVIC_Initialize   0x9d0023a8           0x58          88   
.text.adjust_size       0x9d002400           0x58          88   
.text.trim              0x9d002458           0x58          88   
.text.gpio_callback     0x9d0024b0           0x54          84   
.text.main_entry        0x9d002504           0x54          84   
.text.read              0x9d002558           0x4c          76   
.text.write             0x9d0025a4           0x4c          76   
.text.puts              0x9d0025f0           0x4c          76   
.text.TIMER_3_Interrupt 0x9d00263c           0x48          72   
.text.TIMER_1_Interrupt 0x9d002684           0x48          72   
.text                   0x9d0026cc           0x44          68  App's exec code 
.text.__towrite         0x9d002710           0x44          68   
.text.TMR3_Initialize   0x9d002754           0x40          64   
.text.TMR1_Initialize   0x9d002794           0x40          64   
.text.tmr1_callback     0x9d0027d4           0x3c          60   
.text.CORETIMER_Initial 0x9d002810           0x3c          60   
.text.__towrite_rw      0x9d00284c           0x3c          60   
.text.__expand_heap     0x9d002888           0x3c          60   
.text                   0x9d0028c4           0x78         120  App's exec code 
.text.UART1_Initialize  0x9d00293c           0x38          56   
.text.lock_bin          0x9d002974           0x34          52   
.text.__fwrite          0x9d0029a8           0x34          52   
.text.strlen            0x9d0029dc           0x30          48   
.text._stub_sbd_memlayo 0x9d002a0c           0x2c          44   
.text.setbuf            0x9d002a38           0x24          36   
.rodata.main.str1.4     0x9d002a5c           0x20          32   
.text.__fwrite_min      0x9d002a7c           0x20          32   
.text                   0x9d002a9c           0x20          32  App's exec code 
.text.putc              0x9d002abc           0x1c          28   
.MIPS.abiflags          0x9d002ad8           0x18          24   
.text._general_exceptio 0x9d002af0           0x18          24   
.text._bootstrap_except 0x9d002b08           0x18          24   
.text                   0x9d002b20           0x30          48  App's exec code 
.text.TMR3_Start        0x9d002b50           0x14          20   
.text.TMR3_Stop         0x9d002b64           0x14          20   
.text.TMR3_CallbackRegi 0x9d002b78           0x14          20   
.text.TMR1_Start        0x9d002b8c           0x14          20   
.text.TMR1_Stop         0x9d002ba0           0x14          20   
.text.TMR1_CallbackRegi 0x9d002bb4           0x14          20   
.rodata                 0x9d002bc8           0x14          20  Read-only const 
.rodata.portNumCb       0x9d002bdc            0x8           8   
.text._on_reset         0x9d002be4            0x8           8   
.text._on_bootstrap     0x9d002bec            0x8           8   
.text.__dummy           0x9d002bf4           0x10          16   
.text.lseek             0x9d002c04            0x8           8   
.text.close             0x9d002c0c            0x8           8   
      Total kseg0_program_mem used  :      0x2c14       11284  2.2% of 0x80000

kseg0 Boot-Memory Usage
section                    address  length [bytes]      (dec)  Description
-------                 ----------  -------------------------  -----------
         Total kseg0_boot_mem used  :           0           0  

kseg1 Boot-Memory Usage
section                    address  length [bytes]      (dec)  Description
-------                 ----------  -------------------------  -----------
.reset                  0xbfc00000          0x194         404  Reset handler 
.bev_excpt              0xbfc00380           0x10          16  BEV-Exception 
         Total kseg1_boot_mem used  :       0x1a4         420  36.5% of 0x480
        --------------------------------------------------------------------------
         Total Program Memory used  :      0x2db8       11704  2.2% of 0x80480
        --------------------------------------------------------------------------


Data-Memory Usage
section                    address  length [bytes]      (dec)  Description
-------                 ----------  -------------------------  -----------
.sdata                  0x80000000            0x8           8  Small init data 
.sbss                   0x80000008           0x18          24  Small uninit data 
.data                   0x80000020           0xd0         208  Initialized data 
.data._stdin            0x800000f0            0x4           4   
.data._stdout           0x800000f4            0x4           4   
.bss                    0x800000f8          0x618        1560  Uninitialized data 
.bss                    0x80000710           0x74         116  Uninitialized data 
.bss.portPinCbObj       0x80000784            0xc          12   
.bss.errno              0x80000790            0x4           4   
         Total kseg0/kseg1 data_mem used  :       0x794        1940  3.0% of 0x10000
        --------------------------------------------------------------------------
            Total Data Memory used  :       0x794        1940  3.0% of 0x10000
        --------------------------------------------------------------------------


Dynamic Data-Memory Reservation
section                    address  length [bytes]      (dec)  Description
-------                 ----------  -------------------------  -----------
heap                    0x80000798          0x200         512  Reserved for heap 
stack                   0x800009b0         0xf640       63040  Reserved for stack 

        --------------------------------------------------------------------------

Note: Microchip PIC32 Memory-Usage Report By Module might not be accurate when used in conjunction with LTO!
Microchip PIC32 Memory-Usage Report By Module

        text        data         bss         dec         hex    basename                    filename
--------------------------------------------------------------------------------
        1888           0         528        2416         970    malloc.o                libc-musl.a
        1416           0           0        1416         588    interrupts.o            build/default/production/_ext/1171490990/interrupts.o
        1264           0           0        1264         4f0    data_init               data_init
           8         108        1032        1148         47c    stdin.o                 libc-musl.a
         744           0          12         756         2f4    plib_gpio.o             build/default/production/_ext/1865254177/plib_gpio.o
           0         628           0         628         274    ccd7BBA2.o              C:\Users\HP\AppData\Local\Temp\ccd7BBA2.o
         560           0          36         596         254    sbrk.o                  libpic32.a
         536           0           0         536         218    __stdio_write.o         libc-musl.a
         520           0           0         520         208    ccSwWAzT.o              C:\Users\HP\AppData\Local\Temp\ccSwWAzT.o
         492           1           6         499         1f3    main.o                  build/default/production/_ext/1360937237/main.o
         456           0           0         456         1c8    plib_uart1.o            build/default/production/_ext/1865657120/plib_uart1.o
         220           0           0         220          dc    general-exception.o     libpic32.a
         204           0           0         204          cc    __stdio_read.o          libc-musl.a
         196           0           8         204          cc    plib_tmr3.o             build/default/production/_ext/60181895/plib_tmr3.o
         196           0           8         204          cc    plib_tmr1.o             build/default/production/_ext/1865638794/plib_tmr1.o
         200           0           0         200          c8    initialization.o        build/default/production/_ext/1171490990/initialization.o
         192           0           0         192          c0    __stdio_close.o         libc-musl.a
         176           0           0         176          b0    plib_clk.o              build/default/production/_ext/60165520/plib_clk.o
         172           0           0         172          ac    setvbuf.o               libc-musl.a
         152           4           0         156          9c    plib_coretimer.o        build/default/production/_ext/1249264884/plib_coretimer.o
         152           0           0         152          98    xc32_monitor.o          build/default/production/_ext/163028504/xc32_monitor.o
         148           0           0         148          94    __overflow.o            libc-musl.a
         144           0           0         144          90    pic32_data_init_core.o  libpic32.a
         124           0           0         124          7c    readv.o                 libc-musl.a
         124           0           0         124          7c    writev.o                libc-musl.a
         124           0           0         124          7c    putc.o                  libc-musl.a
           8         108           0         116          74    stdout.o                libc-musl.a
         112           0           0         112          70    __putc.o                libc-musl.a
          96           0           0          96          60    fwrite.o                libc-musl.a
          92           0           0          92          5c    fputs.o                 libc-musl.a
          88           0           0          88          58    plib_evic.o             build/default/production/_ext/1865200349/plib_evic.o
           0           0          80          80          50    libc.o                  libc-musl.a
          76           0           0          76          4c    puts.o                  libc-musl.a
          72           0           0          72          48    defaultinterrupt.o      libpic32.a
          68           0           0          68          44    debug-exception-return.og:/embedded tools/pic/xc32 compiler/bin/bin/../../lib/gcc/pic32mx/8.3.1/../../../../pic32mx/lib/fpu64\debug-exception-return.o
          68           0           0          68          44    __towrite.o             libc-musl.a
          68           0           0          68          44    pic32_software_reset.o  g:/embedded tools/pic/xc32 compiler/bin/bin/../../lib/gcc/pic32mx/8.3.1/../../../../pic32mx/lib/fpu64\pic32_software_reset.o
          60           0           0          60          3c    expand_heap.o           libc-musl.a
          60           0           0          60          3c    _lshrdi3.o              libgcc.a
          60           0           0          60          3c    _ashldi3.o              libgcc.a
          60           0           0          60          3c    __towrite_rw.o          libc-musl.a
          52           0           0          52          34    __fwrite.o              libc-musl.a
          48           0           0          48          30    strlen.o                libc-musl.a
          48           0           0          48          30    exceptions.o            build/default/production/_ext/1171490990/exceptions.o
          44           0           0          44          2c    memcpy.o                libc-musl.a
          36           0           0          36          24    setbuf.o                libc-musl.a
          32           0           0          32          20    pic32_data_init_copy.o  libpic32.a
          32           0           0          32          20    __out.o                 libc-musl.a
          24           0           0          24          18    default-nmi-handler.o   libpic32.a
          24           0           0          24          18    pic32_data_init_clear.o libpic32.a
           8           0           0           8           8    default-on-reset.o      libpic32.a
           8           0           0           8           8    default-on-bootstrap.o  libpic32.a
           8           0           0           8           8    close.o                 libpic32.a
           8           0           0           8           8    lseek.o                 libpic32.a
           0           0           4           4           4    errno.o                 libpic32.a
           0           0           0           5           5    padding                 padding
--------------------------------------------------------------------------------
       11768         849        1714       14336        3800    dist/default/production/button_debounce.X.production.elf


Discarded input sections

 .text          0x0000000000000000        0x0 g:/embedded tools/pic/xc32 compiler/bin/bin/../../lib/gcc/pic32mx/8.3.1/../../../../pic32mx/lib/fpu64\debug-exception-return.o
 .data          0x0000000000000000        0x0 g:/embedded tools/pic/xc32 compiler/bin/bin/../../lib/gcc/pic32mx/8.3.1/../../../../pic32mx/lib/fpu64\debug-exception-return.o
 .bss           0x0000000000000000        0x0 g:/embedded tools/pic/xc32 compiler/bin/bin/../../lib/gcc/pic32mx/8.3.1/../../../../pic32mx/lib/fpu64\debug-exception-return.o
 .xc_stack_usage.hdr
                0x0000000000000000        0xe g:/embedded tools/pic/xc32 compiler/bin/bin/../../lib/gcc/pic32mx/8.3.1/../../../../pic32mx/lib/fpu64\debug-exception-return.o
 .xc_stack_usage
                0x0000000000000000       0x1d g:/embedded tools/pic/xc32 compiler/bin/bin/../../lib/gcc/pic32mx/8.3.1/../../../../pic32mx/lib/fpu64\debug-exception-return.o
 .text          0x0000000000000000        0x0 build/default/production/_ext/60165520/plib_clk.o
 .data          0x0000000000000000        0x0 build/default/production/_ext/60165520/plib_clk.o
 .bss           0x0000000000000000        0x0 build/default/production/_ext/60165520/plib_clk.o
 .reginfo       0x0000000000000000       0x18 build/default/production/_ext/60165520/plib_clk.o
 .MIPS.abiflags
                0x0000000000000000       0x18 build/default/production/_ext/60165520/plib_clk.o
 .text          0x0000000000000000        0x0 build/default/production/_ext/1865200349/plib_evic.o
 .data          0x0000000000000000        0x0 build/default/production/_ext/1865200349/plib_evic.o
 .bss           0x0000000000000000        0x0 build/default/production/_ext/1865200349/plib_evic.o
 .reginfo       0x0000000000000000       0x18 build/default/production/_ext/1865200349/plib_evic.o
 .MIPS.abiflags
                0x0000000000000000       0x18 build/default/production/_ext/1865200349/plib_evic.o
 .text.EVIC_SourceEnable
                0x0000000000000000       0x28 build/default/production/_ext/1865200349/plib_evic.o
 .text.EVIC_SourceDisable
                0x0000000000000000       0x28 build/default/production/_ext/1865200349/plib_evic.o
 .text.EVIC_SourceIsEnabled
                0x0000000000000000       0x20 build/default/production/_ext/1865200349/plib_evic.o
 .text.EVIC_SourceStatusGet
                0x0000000000000000       0x20 build/default/production/_ext/1865200349/plib_evic.o
 .text.EVIC_SourceStatusSet
                0x0000000000000000       0x28 build/default/production/_ext/1865200349/plib_evic.o
 .text.EVIC_SourceStatusClear
                0x0000000000000000       0x28 build/default/production/_ext/1865200349/plib_evic.o
 .text.EVIC_INT_Enable
                0x0000000000000000       0x18 build/default/production/_ext/1865200349/plib_evic.o
 .text.EVIC_INT_Disable
                0x0000000000000000       0x20 build/default/production/_ext/1865200349/plib_evic.o
 .text.EVIC_INT_Restore
                0x0000000000000000       0x28 build/default/production/_ext/1865200349/plib_evic.o
 .text          0x0000000000000000        0x0 build/default/production/_ext/1865254177/plib_gpio.o
 .data          0x0000000000000000        0x0 build/default/production/_ext/1865254177/plib_gpio.o
 .bss           0x0000000000000000        0x0 build/default/production/_ext/1865254177/plib_gpio.o
 .reginfo       0x0000000000000000       0x18 build/default/production/_ext/1865254177/plib_gpio.o
 .MIPS.abiflags
                0x0000000000000000       0x18 build/default/production/_ext/1865254177/plib_gpio.o
 .text.GPIO_PortRead
                0x0000000000000000       0x18 build/default/production/_ext/1865254177/plib_gpio.o
 .text.GPIO_PortWrite
                0x0000000000000000       0x2c build/default/production/_ext/1865254177/plib_gpio.o
 .text.GPIO_PortLatchRead
                0x0000000000000000       0x18 build/default/production/_ext/1865254177/plib_gpio.o
 .text.GPIO_PortSet
                0x0000000000000000       0x1c build/default/production/_ext/1865254177/plib_gpio.o
 .text.GPIO_PortClear
                0x0000000000000000       0x1c build/default/production/_ext/1865254177/plib_gpio.o
 .text.GPIO_PortToggle
                0x0000000000000000       0x1c build/default/production/_ext/1865254177/plib_gpio.o
 .text.GPIO_PortInputEnable
                0x0000000000000000       0x1c build/default/production/_ext/1865254177/plib_gpio.o
 .text.GPIO_PortOutputEnable
                0x0000000000000000       0x1c build/default/production/_ext/1865254177/plib_gpio.o
 .text.GPIO_PortInterruptEnable
                0x0000000000000000       0x1c build/default/production/_ext/1865254177/plib_gpio.o
 .text.GPIO_PortInterruptDisable
                0x0000000000000000       0x1c build/default/production/_ext/1865254177/plib_gpio.o
 .text.GPIO_PinIntDisable
                0x0000000000000000       0x3c build/default/production/_ext/1865254177/plib_gpio.o
 .text          0x0000000000000000        0x0 build/default/production/_ext/1865657120/plib_uart1.o
 .data          0x0000000000000000        0x0 build/default/production/_ext/1865657120/plib_uart1.o
 .bss           0x0000000000000000        0x0 build/default/production/_ext/1865657120/plib_uart1.o
 .reginfo       0x0000000000000000       0x18 build/default/production/_ext/1865657120/plib_uart1.o
 .MIPS.abiflags
                0x0000000000000000       0x18 build/default/production/_ext/1865657120/plib_uart1.o
 .text.UART1_SerialSetup
                0x0000000000000000      0x104 build/default/production/_ext/1865657120/plib_uart1.o
 .text.UART1_ErrorGet
                0x0000000000000000       0x3c build/default/production/_ext/1865657120/plib_uart1.o
 .text.UART1_AutoBaudQuery
                0x0000000000000000       0x10 build/default/production/_ext/1865657120/plib_uart1.o
 .text.UART1_AutoBaudSet
                0x0000000000000000       0x18 build/default/production/_ext/1865657120/plib_uart1.o
 .text.UART1_WriteByte
                0x0000000000000000       0x20 build/default/production/_ext/1865657120/plib_uart1.o
 .text.UART1_TransmitterIsReady
                0x0000000000000000       0x14 build/default/production/_ext/1865657120/plib_uart1.o
 .text.UART1_ReadByte
                0x0000000000000000       0x10 build/default/production/_ext/1865657120/plib_uart1.o
 .text.UART1_ReceiverIsReady
                0x0000000000000000       0x10 build/default/production/_ext/1865657120/plib_uart1.o
 .text.UART1_TransmitComplete
                0x0000000000000000       0x10 build/default/production/_ext/1865657120/plib_uart1.o
 .text          0x0000000000000000        0x0 build/default/production/_ext/163028504/xc32_monitor.o
 .data          0x0000000000000000        0x0 build/default/production/_ext/163028504/xc32_monitor.o
 .bss           0x0000000000000000        0x0 build/default/production/_ext/163028504/xc32_monitor.o
 .reginfo       0x0000000000000000       0x18 build/default/production/_ext/163028504/xc32_monitor.o
 .MIPS.abiflags
                0x0000000000000000       0x18 build/default/production/_ext/163028504/xc32_monitor.o
 .text          0x0000000000000000        0x0 build/default/production/_ext/1171490990/interrupts.o
 .data          0x0000000000000000        0x0 build/default/production/_ext/1171490990/interrupts.o
 .bss           0x0000000000000000        0x0 build/default/production/_ext/1171490990/interrupts.o
 .reginfo       0x0000000000000000       0x18 build/default/production/_ext/1171490990/interrupts.o
 .MIPS.abiflags
                0x0000000000000000       0x18 build/default/production/_ext/1171490990/interrupts.o
 .text          0x0000000000000000        0x0 build/default/production/_ext/1171490990/initialization.o
 .data          0x0000000000000000        0x0 build/default/production/_ext/1171490990/initialization.o
 .bss           0x0000000000000000        0x0 build/default/production/_ext/1171490990/initialization.o
 .reginfo       0x0000000000000000       0x18 build/default/production/_ext/1171490990/initialization.o
 .MIPS.abiflags
                0x0000000000000000       0x18 build/default/production/_ext/1171490990/initialization.o
 .text          0x0000000000000000        0x0 build/default/production/_ext/1171490990/exceptions.o
 .data          0x0000000000000000        0x0 build/default/production/_ext/1171490990/exceptions.o
 .bss           0x0000000000000000        0x0 build/default/production/_ext/1171490990/exceptions.o
 .reginfo       0x0000000000000000       0x18 build/default/production/_ext/1171490990/exceptions.o
 .MIPS.abiflags
                0x0000000000000000       0x18 build/default/production/_ext/1171490990/exceptions.o
 .text          0x0000000000000000        0x0 build/default/production/_ext/1360937237/main.o
 .data          0x0000000000000000        0x0 build/default/production/_ext/1360937237/main.o
 .bss           0x0000000000000000        0x0 build/default/production/_ext/1360937237/main.o
 .reginfo       0x0000000000000000       0x18 build/default/production/_ext/1360937237/main.o
 .MIPS.abiflags
                0x0000000000000000       0x18 build/default/production/_ext/1360937237/main.o
 .sbss.counter  0x0000000000000000        0x4 build/default/production/_ext/1360937237/main.o
 .text          0x0000000000000000        0x0 build/default/production/_ext/1249264884/plib_coretimer.o
 .data          0x0000000000000000        0x0 build/default/production/_ext/1249264884/plib_coretimer.o
 .bss           0x0000000000000000        0x0 build/default/production/_ext/1249264884/plib_coretimer.o
 .reginfo       0x0000000000000000       0x18 build/default/production/_ext/1249264884/plib_coretimer.o
 .MIPS.abiflags
                0x0000000000000000       0x18 build/default/production/_ext/1249264884/plib_coretimer.o
 .text.CORETIMER_Stop
                0x0000000000000000       0x28 build/default/production/_ext/1249264884/plib_coretimer.o
 .text.CORETIMER_FrequencyGet
                0x0000000000000000        0xc build/default/production/_ext/1249264884/plib_coretimer.o
 .text.CORETIMER_CompareSet
                0x0000000000000000       0x20 build/default/production/_ext/1249264884/plib_coretimer.o
 .text.CORETIMER_CounterGet
                0x0000000000000000       0x18 build/default/production/_ext/1249264884/plib_coretimer.o
 .text.CORETIMER_CompareHasExpired
                0x0000000000000000       0x24 build/default/production/_ext/1249264884/plib_coretimer.o
 .text.CORETIMER_DelayMs
                0x0000000000000000       0x44 build/default/production/_ext/1249264884/plib_coretimer.o
 .text.CORETIMER_DelayUs
                0x0000000000000000       0x34 build/default/production/_ext/1249264884/plib_coretimer.o
 .text          0x0000000000000000        0x0 build/default/production/_ext/60181895/plib_tmr3.o
 .data          0x0000000000000000        0x0 build/default/production/_ext/60181895/plib_tmr3.o
 .bss           0x0000000000000000        0x0 build/default/production/_ext/60181895/plib_tmr3.o
 .reginfo       0x0000000000000000       0x18 build/default/production/_ext/60181895/plib_tmr3.o
 .MIPS.abiflags
                0x0000000000000000       0x18 build/default/production/_ext/60181895/plib_tmr3.o
 .text.TMR3_PeriodSet
                0x0000000000000000       0x10 build/default/production/_ext/60181895/plib_tmr3.o
 .text.TMR3_PeriodGet
                0x0000000000000000       0x10 build/default/production/_ext/60181895/plib_tmr3.o
 .text.TMR3_CounterGet
                0x0000000000000000       0x10 build/default/production/_ext/60181895/plib_tmr3.o
 .text.TMR3_FrequencyGet
                0x0000000000000000        0xc build/default/production/_ext/60181895/plib_tmr3.o
 .text.TMR3_InterruptEnable
                0x0000000000000000       0x14 build/default/production/_ext/60181895/plib_tmr3.o
 .text.TMR3_InterruptDisable
                0x0000000000000000       0x14 build/default/production/_ext/60181895/plib_tmr3.o
 .text          0x0000000000000000        0x0 build/default/production/_ext/1865638794/plib_tmr1.o
 .data          0x0000000000000000        0x0 build/default/production/_ext/1865638794/plib_tmr1.o
 .bss           0x0000000000000000        0x0 build/default/production/_ext/1865638794/plib_tmr1.o
 .reginfo       0x0000000000000000       0x18 build/default/production/_ext/1865638794/plib_tmr1.o
 .MIPS.abiflags
                0x0000000000000000       0x18 build/default/production/_ext/1865638794/plib_tmr1.o
 .text.TMR1_PeriodSet
                0x0000000000000000       0x10 build/default/production/_ext/1865638794/plib_tmr1.o
 .text.TMR1_PeriodGet
                0x0000000000000000       0x10 build/default/production/_ext/1865638794/plib_tmr1.o
 .text.TMR1_CounterGet
                0x0000000000000000       0x10 build/default/production/_ext/1865638794/plib_tmr1.o
 .text.TMR1_FrequencyGet
                0x0000000000000000        0xc build/default/production/_ext/1865638794/plib_tmr1.o
 .text.TMR1_InterruptEnable
                0x0000000000000000       0x14 build/default/production/_ext/1865638794/plib_tmr1.o
 .text.TMR1_InterruptDisable
                0x0000000000000000       0x14 build/default/production/_ext/1865638794/plib_tmr1.o
 .text          0x0000000000000000        0x0 C:\Users\HP\AppData\Local\Temp\ccSwWAzT.o
 .data          0x0000000000000000        0x0 C:\Users\HP\AppData\Local\Temp\ccSwWAzT.o
 .bss           0x0000000000000000        0x0 C:\Users\HP\AppData\Local\Temp\ccSwWAzT.o
 .reginfo       0x0000000000000000       0x18 C:\Users\HP\AppData\Local\Temp\ccSwWAzT.o
 .MIPS.abiflags
                0x0000000000000000       0x18 C:\Users\HP\AppData\Local\Temp\ccSwWAzT.o
 .text          0x0000000000000000        0x0 C:\Users\HP\AppData\Local\Temp\ccozJtYY.o
 .data          0x0000000000000000        0x0 C:\Users\HP\AppData\Local\Temp\ccozJtYY.o
 .bss           0x0000000000000000        0x0 C:\Users\HP\AppData\Local\Temp\ccozJtYY.o
 .reginfo       0x0000000000000000       0x18 C:\Users\HP\AppData\Local\Temp\ccozJtYY.o
 .MIPS.abiflags
                0x0000000000000000       0x18 C:\Users\HP\AppData\Local\Temp\ccozJtYY.o
 .text          0x0000000000000000        0x0 C:\Users\HP\AppData\Local\Temp\ccd7BBA2.o
 .data          0x0000000000000000        0x0 C:\Users\HP\AppData\Local\Temp\ccd7BBA2.o
 .bss           0x0000000000000000        0x0 C:\Users\HP\AppData\Local\Temp\ccd7BBA2.o
 .reginfo       0x0000000000000000       0x18 C:\Users\HP\AppData\Local\Temp\ccd7BBA2.o
 .MIPS.abiflags
                0x0000000000000000       0x18 C:\Users\HP\AppData\Local\Temp\ccd7BBA2.o
 .text          0x0000000000000000        0x0 C:\Users\HP\AppData\Local\Temp\cc2iFMcc.o
 .data          0x0000000000000000        0x0 C:\Users\HP\AppData\Local\Temp\cc2iFMcc.o
 .bss           0x0000000000000000        0x0 C:\Users\HP\AppData\Local\Temp\cc2iFMcc.o
 .reginfo       0x0000000000000000       0x18 C:\Users\HP\AppData\Local\Temp\cc2iFMcc.o
 .MIPS.abiflags
                0x0000000000000000       0x18 C:\Users\HP\AppData\Local\Temp\cc2iFMcc.o
 .discard       0x0000000000000000        0x4 C:\Users\HP\AppData\Local\Temp\cc2iFMcc.o
 .data          0x0000000000000000        0x0 g:/embedded tools/pic/xc32 compiler/bin/bin/../../lib/gcc/pic32mx/8.3.1/../../../../pic32mx/lib/fpu64\pic32_software_reset.o
 .bss           0x0000000000000000        0x0 g:/embedded tools/pic/xc32 compiler/bin/bin/../../lib/gcc/pic32mx/8.3.1/../../../../pic32mx/lib/fpu64\pic32_software_reset.o
 .reginfo       0x0000000000000000       0x18 g:/embedded tools/pic/xc32 compiler/bin/bin/../../lib/gcc/pic32mx/8.3.1/../../../../pic32mx/lib/fpu64\pic32_software_reset.o
 .MIPS.abiflags
                0x0000000000000000       0x18 g:/embedded tools/pic/xc32 compiler/bin/bin/../../lib/gcc/pic32mx/8.3.1/../../../../pic32mx/lib/fpu64\pic32_software_reset.o
 .xc_stack_usage.hdr
                0x0000000000000000        0xe g:/embedded tools/pic/xc32 compiler/bin/bin/../../lib/gcc/pic32mx/8.3.1/../../../../pic32mx/lib/fpu64\pic32_software_reset.o
 .xc_stack_usage
                0x0000000000000000       0x24 g:/embedded tools/pic/xc32 compiler/bin/bin/../../lib/gcc/pic32mx/8.3.1/../../../../pic32mx/lib/fpu64\pic32_software_reset.o
 .text          0x0000000000000000        0x0 g:/embedded tools/pic/xc32 compiler/bin/bin/../../lib/gcc/pic32mx/8.3.1/../../../../pic32mx/lib/fpu64\libpic32.a(default-on-reset.o)
 .data          0x0000000000000000        0x0 g:/embedded tools/pic/xc32 compiler/bin/bin/../../lib/gcc/pic32mx/8.3.1/../../../../pic32mx/lib/fpu64\libpic32.a(default-on-reset.o)
 .bss           0x0000000000000000        0x0 g:/embedded tools/pic/xc32 compiler/bin/bin/../../lib/gcc/pic32mx/8.3.1/../../../../pic32mx/lib/fpu64\libpic32.a(default-on-reset.o)
 .reginfo       0x0000000000000000       0x18 g:/embedded tools/pic/xc32 compiler/bin/bin/../../lib/gcc/pic32mx/8.3.1/../../../../pic32mx/lib/fpu64\libpic32.a(default-on-reset.o)
 .MIPS.abiflags
                0x0000000000000000       0x18 g:/embedded tools/pic/xc32 compiler/bin/bin/../../lib/gcc/pic32mx/8.3.1/../../../../pic32mx/lib/fpu64\libpic32.a(default-on-reset.o)
 .xc_stack_usage
                0x0000000000000000       0x17 g:/embedded tools/pic/xc32 compiler/bin/bin/../../lib/gcc/pic32mx/8.3.1/../../../../pic32mx/lib/fpu64\libpic32.a(default-on-reset.o)
 .xc_stack_usage.hdr
                0x0000000000000000        0xe g:/embedded tools/pic/xc32 compiler/bin/bin/../../lib/gcc/pic32mx/8.3.1/../../../../pic32mx/lib/fpu64\libpic32.a(default-on-reset.o)
 .text          0x0000000000000000        0x0 g:/embedded tools/pic/xc32 compiler/bin/bin/../../lib/gcc/pic32mx/8.3.1/../../../../pic32mx/lib/fpu64\libpic32.a(default-on-bootstrap.o)
 .data          0x0000000000000000        0x0 g:/embedded tools/pic/xc32 compiler/bin/bin/../../lib/gcc/pic32mx/8.3.1/../../../../pic32mx/lib/fpu64\libpic32.a(default-on-bootstrap.o)
 .bss           0x0000000000000000        0x0 g:/embedded tools/pic/xc32 compiler/bin/bin/../../lib/gcc/pic32mx/8.3.1/../../../../pic32mx/lib/fpu64\libpic32.a(default-on-bootstrap.o)
 .reginfo       0x0000000000000000       0x18 g:/embedded tools/pic/xc32 compiler/bin/bin/../../lib/gcc/pic32mx/8.3.1/../../../../pic32mx/lib/fpu64\libpic32.a(default-on-bootstrap.o)
 .MIPS.abiflags
                0x0000000000000000       0x18 g:/embedded tools/pic/xc32 compiler/bin/bin/../../lib/gcc/pic32mx/8.3.1/../../../../pic32mx/lib/fpu64\libpic32.a(default-on-bootstrap.o)
 .xc_stack_usage
                0x0000000000000000       0x1b g:/embedded tools/pic/xc32 compiler/bin/bin/../../lib/gcc/pic32mx/8.3.1/../../../../pic32mx/lib/fpu64\libpic32.a(default-on-bootstrap.o)
 .xc_stack_usage.hdr
                0x0000000000000000        0xe g:/embedded tools/pic/xc32 compiler/bin/bin/../../lib/gcc/pic32mx/8.3.1/../../../../pic32mx/lib/fpu64\libpic32.a(default-on-bootstrap.o)
 .data          0x0000000000000000        0x0 g:/embedded tools/pic/xc32 compiler/bin/bin/../../lib/gcc/pic32mx/8.3.1/../../../../pic32mx/lib/fpu64\libpic32.a(default-nmi-handler.o)
 .bss           0x0000000000000000        0x0 g:/embedded tools/pic/xc32 compiler/bin/bin/../../lib/gcc/pic32mx/8.3.1/../../../../pic32mx/lib/fpu64\libpic32.a(default-nmi-handler.o)
 .reginfo       0x0000000000000000       0x18 g:/embedded tools/pic/xc32 compiler/bin/bin/../../lib/gcc/pic32mx/8.3.1/../../../../pic32mx/lib/fpu64\libpic32.a(default-nmi-handler.o)
 .MIPS.abiflags
                0x0000000000000000       0x18 g:/embedded tools/pic/xc32 compiler/bin/bin/../../lib/gcc/pic32mx/8.3.1/../../../../pic32mx/lib/fpu64\libpic32.a(default-nmi-handler.o)
 .xc_stack_usage.hdr
                0x0000000000000000        0xe g:/embedded tools/pic/xc32 compiler/bin/bin/../../lib/gcc/pic32mx/8.3.1/../../../../pic32mx/lib/fpu64\libpic32.a(default-nmi-handler.o)
 .xc_stack_usage
                0x0000000000000000       0x1a g:/embedded tools/pic/xc32 compiler/bin/bin/../../lib/gcc/pic32mx/8.3.1/../../../../pic32mx/lib/fpu64\libpic32.a(default-nmi-handler.o)
 .data          0x0000000000000000        0x0 g:/embedded tools/pic/xc32 compiler/bin/bin/../../lib/gcc/pic32mx/8.3.1/../../../../pic32mx/lib/fpu64\libpic32.a(pic32_data_init_core.o)
 .bss           0x0000000000000000        0x0 g:/embedded tools/pic/xc32 compiler/bin/bin/../../lib/gcc/pic32mx/8.3.1/../../../../pic32mx/lib/fpu64\libpic32.a(pic32_data_init_core.o)
 .reginfo       0x0000000000000000       0x18 g:/embedded tools/pic/xc32 compiler/bin/bin/../../lib/gcc/pic32mx/8.3.1/../../../../pic32mx/lib/fpu64\libpic32.a(pic32_data_init_core.o)
 .MIPS.abiflags
                0x0000000000000000       0x18 g:/embedded tools/pic/xc32 compiler/bin/bin/../../lib/gcc/pic32mx/8.3.1/../../../../pic32mx/lib/fpu64\libpic32.a(pic32_data_init_core.o)
 .xc_stack_usage.hdr
                0x0000000000000000        0xe g:/embedded tools/pic/xc32 compiler/bin/bin/../../lib/gcc/pic32mx/8.3.1/../../../../pic32mx/lib/fpu64\libpic32.a(pic32_data_init_core.o)
 .xc_stack_usage
                0x0000000000000000       0x41 g:/embedded tools/pic/xc32 compiler/bin/bin/../../lib/gcc/pic32mx/8.3.1/../../../../pic32mx/lib/fpu64\libpic32.a(pic32_data_init_core.o)
 .text          0x0000000000000000        0x0 g:/embedded tools/pic/xc32 compiler/bin/bin/../../lib/gcc/pic32mx/8.3.1/../../../../pic32mx/lib/fpu64\libpic32.a(general-exception.o)
 .data          0x0000000000000000        0x0 g:/embedded tools/pic/xc32 compiler/bin/bin/../../lib/gcc/pic32mx/8.3.1/../../../../pic32mx/lib/fpu64\libpic32.a(general-exception.o)
 .bss           0x0000000000000000        0x0 g:/embedded tools/pic/xc32 compiler/bin/bin/../../lib/gcc/pic32mx/8.3.1/../../../../pic32mx/lib/fpu64\libpic32.a(general-exception.o)
 .reginfo       0x0000000000000000       0x18 g:/embedded tools/pic/xc32 compiler/bin/bin/../../lib/gcc/pic32mx/8.3.1/../../../../pic32mx/lib/fpu64\libpic32.a(general-exception.o)
 .MIPS.abiflags
                0x0000000000000000       0x18 g:/embedded tools/pic/xc32 compiler/bin/bin/../../lib/gcc/pic32mx/8.3.1/../../../../pic32mx/lib/fpu64\libpic32.a(general-exception.o)
 .xc_stack_usage.hdr
                0x0000000000000000        0xe g:/embedded tools/pic/xc32 compiler/bin/bin/../../lib/gcc/pic32mx/8.3.1/../../../../pic32mx/lib/fpu64\libpic32.a(general-exception.o)
 .xc_stack_usage
                0x0000000000000000       0x28 g:/embedded tools/pic/xc32 compiler/bin/bin/../../lib/gcc/pic32mx/8.3.1/../../../../pic32mx/lib/fpu64\libpic32.a(general-exception.o)
 .text          0x0000000000000000        0x0 g:/embedded tools/pic/xc32 compiler/bin/bin/../../lib/gcc/pic32mx/8.3.1/../../../../pic32mx/lib/fpu64\libpic32.a(defaultinterrupt.o)
 .data          0x0000000000000000        0x0 g:/embedded tools/pic/xc32 compiler/bin/bin/../../lib/gcc/pic32mx/8.3.1/../../../../pic32mx/lib/fpu64\libpic32.a(defaultinterrupt.o)
 .bss           0x0000000000000000        0x0 g:/embedded tools/pic/xc32 compiler/bin/bin/../../lib/gcc/pic32mx/8.3.1/../../../../pic32mx/lib/fpu64\libpic32.a(defaultinterrupt.o)
 .reginfo       0x0000000000000000       0x18 g:/embedded tools/pic/xc32 compiler/bin/bin/../../lib/gcc/pic32mx/8.3.1/../../../../pic32mx/lib/fpu64\libpic32.a(defaultinterrupt.o)
 .MIPS.abiflags
                0x0000000000000000       0x18 g:/embedded tools/pic/xc32 compiler/bin/bin/../../lib/gcc/pic32mx/8.3.1/../../../../pic32mx/lib/fpu64\libpic32.a(defaultinterrupt.o)
 .xc_stack_usage
                0x0000000000000000       0x1f g:/embedded tools/pic/xc32 compiler/bin/bin/../../lib/gcc/pic32mx/8.3.1/../../../../pic32mx/lib/fpu64\libpic32.a(defaultinterrupt.o)
 .xc_stack_usage.hdr
                0x0000000000000000        0xe g:/embedded tools/pic/xc32 compiler/bin/bin/../../lib/gcc/pic32mx/8.3.1/../../../../pic32mx/lib/fpu64\libpic32.a(defaultinterrupt.o)
 .text          0x0000000000000000        0x0 g:/embedded tools/pic/xc32 compiler/bin/bin/../../lib/gcc/pic32mx/8.3.1/../../../../pic32mx/lib/fpu64\libc-musl.a(stdin.o)
 .reginfo       0x0000000000000000       0x18 g:/embedded tools/pic/xc32 compiler/bin/bin/../../lib/gcc/pic32mx/8.3.1/../../../../pic32mx/lib/fpu64\libc-musl.a(stdin.o)
 .MIPS.abiflags
                0x0000000000000000       0x18 g:/embedded tools/pic/xc32 compiler/bin/bin/../../lib/gcc/pic32mx/8.3.1/../../../../pic32mx/lib/fpu64\libc-musl.a(stdin.o)
 .xc_stack_usage
                0x0000000000000000       0x33 g:/embedded tools/pic/xc32 compiler/bin/bin/../../lib/gcc/pic32mx/8.3.1/../../../../pic32mx/lib/fpu64\libc-musl.a(stdin.o)
 .xc_stack_usage.hdr
                0x0000000000000000        0xe g:/embedded tools/pic/xc32 compiler/bin/bin/../../lib/gcc/pic32mx/8.3.1/../../../../pic32mx/lib/fpu64\libc-musl.a(stdin.o)
 .note.GNU-stack
                0x0000000000000000        0x0 g:/embedded tools/pic/xc32 compiler/bin/bin/../../lib/gcc/pic32mx/8.3.1/../../../../pic32mx/lib/fpu64\libc-musl.a(stdin.o)
 .text          0x0000000000000000        0x0 g:/embedded tools/pic/xc32 compiler/bin/bin/../../lib/gcc/pic32mx/8.3.1/../../../../pic32mx/lib/fpu64\libc-musl.a(stdout.o)
 .bss           0x0000000000000000        0x0 g:/embedded tools/pic/xc32 compiler/bin/bin/../../lib/gcc/pic32mx/8.3.1/../../../../pic32mx/lib/fpu64\libc-musl.a(stdout.o)
 .reginfo       0x0000000000000000       0x18 g:/embedded tools/pic/xc32 compiler/bin/bin/../../lib/gcc/pic32mx/8.3.1/../../../../pic32mx/lib/fpu64\libc-musl.a(stdout.o)
 .MIPS.abiflags
                0x0000000000000000       0x18 g:/embedded tools/pic/xc32 compiler/bin/bin/../../lib/gcc/pic32mx/8.3.1/../../../../pic32mx/lib/fpu64\libc-musl.a(stdout.o)
 .xc_stack_usage
                0x0000000000000000       0x51 g:/embedded tools/pic/xc32 compiler/bin/bin/../../lib/gcc/pic32mx/8.3.1/../../../../pic32mx/lib/fpu64\libc-musl.a(stdout.o)
 .text.__init_stdout
                0x0000000000000000       0x20 g:/embedded tools/pic/xc32 compiler/bin/bin/../../lib/gcc/pic32mx/8.3.1/../../../../pic32mx/lib/fpu64\libc-musl.a(stdout.o)
 .xc_stack_usage.hdr
                0x0000000000000000        0xe g:/embedded tools/pic/xc32 compiler/bin/bin/../../lib/gcc/pic32mx/8.3.1/../../../../pic32mx/lib/fpu64\libc-musl.a(stdout.o)
 .note.GNU-stack
                0x0000000000000000        0x0 g:/embedded tools/pic/xc32 compiler/bin/bin/../../lib/gcc/pic32mx/8.3.1/../../../../pic32mx/lib/fpu64\libc-musl.a(stdout.o)
 .text          0x0000000000000000        0x0 g:/embedded tools/pic/xc32 compiler/bin/bin/../../lib/gcc/pic32mx/8.3.1/../../../../pic32mx/lib/fpu64\libc-musl.a(puts.o)
 .data          0x0000000000000000        0x0 g:/embedded tools/pic/xc32 compiler/bin/bin/../../lib/gcc/pic32mx/8.3.1/../../../../pic32mx/lib/fpu64\libc-musl.a(puts.o)
 .bss           0x0000000000000000        0x0 g:/embedded tools/pic/xc32 compiler/bin/bin/../../lib/gcc/pic32mx/8.3.1/../../../../pic32mx/lib/fpu64\libc-musl.a(puts.o)
 .reginfo       0x0000000000000000       0x18 g:/embedded tools/pic/xc32 compiler/bin/bin/../../lib/gcc/pic32mx/8.3.1/../../../../pic32mx/lib/fpu64\libc-musl.a(puts.o)
 .MIPS.abiflags
                0x0000000000000000       0x18 g:/embedded tools/pic/xc32 compiler/bin/bin/../../lib/gcc/pic32mx/8.3.1/../../../../pic32mx/lib/fpu64\libc-musl.a(puts.o)
 .xc_stack_usage
                0x0000000000000000       0x12 g:/embedded tools/pic/xc32 compiler/bin/bin/../../lib/gcc/pic32mx/8.3.1/../../../../pic32mx/lib/fpu64\libc-musl.a(puts.o)
 .xc_stack_usage.hdr
                0x0000000000000000        0xe g:/embedded tools/pic/xc32 compiler/bin/bin/../../lib/gcc/pic32mx/8.3.1/../../../../pic32mx/lib/fpu64\libc-musl.a(puts.o)
 .note.GNU-stack
                0x0000000000000000        0x0 g:/embedded tools/pic/xc32 compiler/bin/bin/../../lib/gcc/pic32mx/8.3.1/../../../../pic32mx/lib/fpu64\libc-musl.a(puts.o)
 .text          0x0000000000000000        0x0 g:/embedded tools/pic/xc32 compiler/bin/bin/../../lib/gcc/pic32mx/8.3.1/../../../../pic32mx/lib/fpu64\libc-musl.a(setbuf.o)
 .data          0x0000000000000000        0x0 g:/embedded tools/pic/xc32 compiler/bin/bin/../../lib/gcc/pic32mx/8.3.1/../../../../pic32mx/lib/fpu64\libc-musl.a(setbuf.o)
 .bss           0x0000000000000000        0x0 g:/embedded tools/pic/xc32 compiler/bin/bin/../../lib/gcc/pic32mx/8.3.1/../../../../pic32mx/lib/fpu64\libc-musl.a(setbuf.o)
 .reginfo       0x0000000000000000       0x18 g:/embedded tools/pic/xc32 compiler/bin/bin/../../lib/gcc/pic32mx/8.3.1/../../../../pic32mx/lib/fpu64\libc-musl.a(setbuf.o)
 .MIPS.abiflags
                0x0000000000000000       0x18 g:/embedded tools/pic/xc32 compiler/bin/bin/../../lib/gcc/pic32mx/8.3.1/../../../../pic32mx/lib/fpu64\libc-musl.a(setbuf.o)
 .xc_stack_usage
                0x0000000000000000       0x14 g:/embedded tools/pic/xc32 compiler/bin/bin/../../lib/gcc/pic32mx/8.3.1/../../../../pic32mx/lib/fpu64\libc-musl.a(setbuf.o)
 .xc_stack_usage.hdr
                0x0000000000000000        0xe g:/embedded tools/pic/xc32 compiler/bin/bin/../../lib/gcc/pic32mx/8.3.1/../../../../pic32mx/lib/fpu64\libc-musl.a(setbuf.o)
 .note.GNU-stack
                0x0000000000000000        0x0 g:/embedded tools/pic/xc32 compiler/bin/bin/../../lib/gcc/pic32mx/8.3.1/../../../../pic32mx/lib/fpu64\libc-musl.a(setbuf.o)
 .text          0x0000000000000000        0x0 g:/embedded tools/pic/xc32 compiler/bin/bin/../../lib/gcc/pic32mx/8.3.1/../../../../pic32mx/lib/fpu64\libc-musl.a(fputs.o)
 .data          0x0000000000000000        0x0 g:/embedded tools/pic/xc32 compiler/bin/bin/../../lib/gcc/pic32mx/8.3.1/../../../../pic32mx/lib/fpu64\libc-musl.a(fputs.o)
 .bss           0x0000000000000000        0x0 g:/embedded tools/pic/xc32 compiler/bin/bin/../../lib/gcc/pic32mx/8.3.1/../../../../pic32mx/lib/fpu64\libc-musl.a(fputs.o)
 .reginfo       0x0000000000000000       0x18 g:/embedded tools/pic/xc32 compiler/bin/bin/../../lib/gcc/pic32mx/8.3.1/../../../../pic32mx/lib/fpu64\libc-musl.a(fputs.o)
 .MIPS.abiflags
                0x0000000000000000       0x18 g:/embedded tools/pic/xc32 compiler/bin/bin/../../lib/gcc/pic32mx/8.3.1/../../../../pic32mx/lib/fpu64\libc-musl.a(fputs.o)
 .xc_stack_usage
                0x0000000000000000       0x13 g:/embedded tools/pic/xc32 compiler/bin/bin/../../lib/gcc/pic32mx/8.3.1/../../../../pic32mx/lib/fpu64\libc-musl.a(fputs.o)
 .xc_stack_usage.hdr
                0x0000000000000000        0xe g:/embedded tools/pic/xc32 compiler/bin/bin/../../lib/gcc/pic32mx/8.3.1/../../../../pic32mx/lib/fpu64\libc-musl.a(fputs.o)
 .note.GNU-stack
                0x0000000000000000        0x0 g:/embedded tools/pic/xc32 compiler/bin/bin/../../lib/gcc/pic32mx/8.3.1/../../../../pic32mx/lib/fpu64\libc-musl.a(fputs.o)
 .text          0x0000000000000000        0x0 g:/embedded tools/pic/xc32 compiler/bin/bin/../../lib/gcc/pic32mx/8.3.1/../../../../pic32mx/lib/fpu64\libc-musl.a(__io_init_needed.o)
 .data          0x0000000000000000        0x0 g:/embedded tools/pic/xc32 compiler/bin/bin/../../lib/gcc/pic32mx/8.3.1/../../../../pic32mx/lib/fpu64\libc-musl.a(__io_init_needed.o)
 .bss           0x0000000000000000        0x0 g:/embedded tools/pic/xc32 compiler/bin/bin/../../lib/gcc/pic32mx/8.3.1/../../../../pic32mx/lib/fpu64\libc-musl.a(__io_init_needed.o)
 .reginfo       0x0000000000000000       0x18 g:/embedded tools/pic/xc32 compiler/bin/bin/../../lib/gcc/pic32mx/8.3.1/../../../../pic32mx/lib/fpu64\libc-musl.a(__io_init_needed.o)
 .MIPS.abiflags
                0x0000000000000000       0x18 g:/embedded tools/pic/xc32 compiler/bin/bin/../../lib/gcc/pic32mx/8.3.1/../../../../pic32mx/lib/fpu64\libc-musl.a(__io_init_needed.o)
 .xc_stack_usage
                0x0000000000000000       0x40 g:/embedded tools/pic/xc32 compiler/bin/bin/../../lib/gcc/pic32mx/8.3.1/../../../../pic32mx/lib/fpu64\libc-musl.a(__io_init_needed.o)
 .xc_stack_usage.hdr
                0x0000000000000000        0xe g:/embedded tools/pic/xc32 compiler/bin/bin/../../lib/gcc/pic32mx/8.3.1/../../../../pic32mx/lib/fpu64\libc-musl.a(__io_init_needed.o)
 .note.GNU-stack
                0x0000000000000000        0x0 g:/embedded tools/pic/xc32 compiler/bin/bin/../../lib/gcc/pic32mx/8.3.1/../../../../pic32mx/lib/fpu64\libc-musl.a(__io_init_needed.o)
 .text          0x0000000000000000        0x0 g:/embedded tools/pic/xc32 compiler/bin/bin/../../lib/gcc/pic32mx/8.3.1/../../../../pic32mx/lib/fpu64\libc-musl.a(__io_rw_needed.o)
 .data          0x0000000000000000        0x0 g:/embedded tools/pic/xc32 compiler/bin/bin/../../lib/gcc/pic32mx/8.3.1/../../../../pic32mx/lib/fpu64\libc-musl.a(__io_rw_needed.o)
 .bss           0x0000000000000000        0x0 g:/embedded tools/pic/xc32 compiler/bin/bin/../../lib/gcc/pic32mx/8.3.1/../../../../pic32mx/lib/fpu64\libc-musl.a(__io_rw_needed.o)
 .reginfo       0x0000000000000000       0x18 g:/embedded tools/pic/xc32 compiler/bin/bin/../../lib/gcc/pic32mx/8.3.1/../../../../pic32mx/lib/fpu64\libc-musl.a(__io_rw_needed.o)
 .MIPS.abiflags
                0x0000000000000000       0x18 g:/embedded tools/pic/xc32 compiler/bin/bin/../../lib/gcc/pic32mx/8.3.1/../../../../pic32mx/lib/fpu64\libc-musl.a(__io_rw_needed.o)
 .xc_stack_usage
                0x0000000000000000       0x1c g:/embedded tools/pic/xc32 compiler/bin/bin/../../lib/gcc/pic32mx/8.3.1/../../../../pic32mx/lib/fpu64\libc-musl.a(__io_rw_needed.o)
 .xc_stack_usage.hdr
                0x0000000000000000        0xe g:/embedded tools/pic/xc32 compiler/bin/bin/../../lib/gcc/pic32mx/8.3.1/../../../../pic32mx/lib/fpu64\libc-musl.a(__io_rw_needed.o)
 .note.GNU-stack
                0x0000000000000000        0x0 g:/embedded tools/pic/xc32 compiler/bin/bin/../../lib/gcc/pic32mx/8.3.1/../../../../pic32mx/lib/fpu64\libc-musl.a(__io_rw_needed.o)
 .text          0x0000000000000000        0x0 g:/embedded tools/pic/xc32 compiler/bin/bin/../../lib/gcc/pic32mx/8.3.1/../../../../pic32mx/lib/fpu64\libc-musl.a(__out.o)
 .data          0x0000000000000000        0x0 g:/embedded tools/pic/xc32 compiler/bin/bin/../../lib/gcc/pic32mx/8.3.1/../../../../pic32mx/lib/fpu64\libc-musl.a(__out.o)
 .bss           0x0000000000000000        0x0 g:/embedded tools/pic/xc32 compiler/bin/bin/../../lib/gcc/pic32mx/8.3.1/../../../../pic32mx/lib/fpu64\libc-musl.a(__out.o)
 .reginfo       0x0000000000000000       0x18 g:/embedded tools/pic/xc32 compiler/bin/bin/../../lib/gcc/pic32mx/8.3.1/../../../../pic32mx/lib/fpu64\libc-musl.a(__out.o)
 .MIPS.abiflags
                0x0000000000000000       0x18 g:/embedded tools/pic/xc32 compiler/bin/bin/../../lib/gcc/pic32mx/8.3.1/../../../../pic32mx/lib/fpu64\libc-musl.a(__out.o)
 .xc_stack_usage
                0x0000000000000000       0x2d g:/embedded tools/pic/xc32 compiler/bin/bin/../../lib/gcc/pic32mx/8.3.1/../../../../pic32mx/lib/fpu64\libc-musl.a(__out.o)
 .text.__out    0x0000000000000000       0x8c g:/embedded tools/pic/xc32 compiler/bin/bin/../../lib/gcc/pic32mx/8.3.1/../../../../pic32mx/lib/fpu64\libc-musl.a(__out.o)
 .xc_stack_usage.hdr
                0x0000000000000000        0xe g:/embedded tools/pic/xc32 compiler/bin/bin/../../lib/gcc/pic32mx/8.3.1/../../../../pic32mx/lib/fpu64\libc-musl.a(__out.o)
 .note.GNU-stack
                0x0000000000000000        0x0 g:/embedded tools/pic/xc32 compiler/bin/bin/../../lib/gcc/pic32mx/8.3.1/../../../../pic32mx/lib/fpu64\libc-musl.a(__out.o)
 .text          0x0000000000000000        0x0 g:/embedded tools/pic/xc32 compiler/bin/bin/../../lib/gcc/pic32mx/8.3.1/../../../../pic32mx/lib/fpu64\libc-musl.a(__stdio_close.o)
 .data          0x0000000000000000        0x0 g:/embedded tools/pic/xc32 compiler/bin/bin/../../lib/gcc/pic32mx/8.3.1/../../../../pic32mx/lib/fpu64\libc-musl.a(__stdio_close.o)
 .bss           0x0000000000000000        0x0 g:/embedded tools/pic/xc32 compiler/bin/bin/../../lib/gcc/pic32mx/8.3.1/../../../../pic32mx/lib/fpu64\libc-musl.a(__stdio_close.o)
 .reginfo       0x0000000000000000       0x18 g:/embedded tools/pic/xc32 compiler/bin/bin/../../lib/gcc/pic32mx/8.3.1/../../../../pic32mx/lib/fpu64\libc-musl.a(__stdio_close.o)
 .MIPS.abiflags
                0x0000000000000000       0x18 g:/embedded tools/pic/xc32 compiler/bin/bin/../../lib/gcc/pic32mx/8.3.1/../../../../pic32mx/lib/fpu64\libc-musl.a(__stdio_close.o)
 .xc_stack_usage
                0x0000000000000000       0x39 g:/embedded tools/pic/xc32 compiler/bin/bin/../../lib/gcc/pic32mx/8.3.1/../../../../pic32mx/lib/fpu64\libc-musl.a(__stdio_close.o)
 .text.__stdio_close
                0x0000000000000000       0xa0 g:/embedded tools/pic/xc32 compiler/bin/bin/../../lib/gcc/pic32mx/8.3.1/../../../../pic32mx/lib/fpu64\libc-musl.a(__stdio_close.o)
 .xc_stack_usage.hdr
                0x0000000000000000        0xe g:/embedded tools/pic/xc32 compiler/bin/bin/../../lib/gcc/pic32mx/8.3.1/../../../../pic32mx/lib/fpu64\libc-musl.a(__stdio_close.o)
 .note.GNU-stack
                0x0000000000000000        0x0 g:/embedded tools/pic/xc32 compiler/bin/bin/../../lib/gcc/pic32mx/8.3.1/../../../../pic32mx/lib/fpu64\libc-musl.a(__stdio_close.o)
 .text          0x0000000000000000        0x0 g:/embedded tools/pic/xc32 compiler/bin/bin/../../lib/gcc/pic32mx/8.3.1/../../../../pic32mx/lib/fpu64\libc-musl.a(__stdio_read.o)
 .data          0x0000000000000000        0x0 g:/embedded tools/pic/xc32 compiler/bin/bin/../../lib/gcc/pic32mx/8.3.1/../../../../pic32mx/lib/fpu64\libc-musl.a(__stdio_read.o)
 .bss           0x0000000000000000        0x0 g:/embedded tools/pic/xc32 compiler/bin/bin/../../lib/gcc/pic32mx/8.3.1/../../../../pic32mx/lib/fpu64\libc-musl.a(__stdio_read.o)
 .reginfo       0x0000000000000000       0x18 g:/embedded tools/pic/xc32 compiler/bin/bin/../../lib/gcc/pic32mx/8.3.1/../../../../pic32mx/lib/fpu64\libc-musl.a(__stdio_read.o)
 .MIPS.abiflags
                0x0000000000000000       0x18 g:/embedded tools/pic/xc32 compiler/bin/bin/../../lib/gcc/pic32mx/8.3.1/../../../../pic32mx/lib/fpu64\libc-musl.a(__stdio_read.o)
 .xc_stack_usage
                0x0000000000000000       0x1a g:/embedded tools/pic/xc32 compiler/bin/bin/../../lib/gcc/pic32mx/8.3.1/../../../../pic32mx/lib/fpu64\libc-musl.a(__stdio_read.o)
 .xc_stack_usage.hdr
                0x0000000000000000        0xe g:/embedded tools/pic/xc32 compiler/bin/bin/../../lib/gcc/pic32mx/8.3.1/../../../../pic32mx/lib/fpu64\libc-musl.a(__stdio_read.o)
 .note.GNU-stack
                0x0000000000000000        0x0 g:/embedded tools/pic/xc32 compiler/bin/bin/../../lib/gcc/pic32mx/8.3.1/../../../../pic32mx/lib/fpu64\libc-musl.a(__stdio_read.o)
 .text          0x0000000000000000        0x0 g:/embedded tools/pic/xc32 compiler/bin/bin/../../lib/gcc/pic32mx/8.3.1/../../../../pic32mx/lib/fpu64\libc-musl.a(__towrite_rw.o)
 .data          0x0000000000000000        0x0 g:/embedded tools/pic/xc32 compiler/bin/bin/../../lib/gcc/pic32mx/8.3.1/../../../../pic32mx/lib/fpu64\libc-musl.a(__towrite_rw.o)
 .bss           0x0000000000000000        0x0 g:/embedded tools/pic/xc32 compiler/bin/bin/../../lib/gcc/pic32mx/8.3.1/../../../../pic32mx/lib/fpu64\libc-musl.a(__towrite_rw.o)
 .reginfo       0x0000000000000000       0x18 g:/embedded tools/pic/xc32 compiler/bin/bin/../../lib/gcc/pic32mx/8.3.1/../../../../pic32mx/lib/fpu64\libc-musl.a(__towrite_rw.o)
 .MIPS.abiflags
                0x0000000000000000       0x18 g:/embedded tools/pic/xc32 compiler/bin/bin/../../lib/gcc/pic32mx/8.3.1/../../../../pic32mx/lib/fpu64\libc-musl.a(__towrite_rw.o)
 .xc_stack_usage
                0x0000000000000000       0x1a g:/embedded tools/pic/xc32 compiler/bin/bin/../../lib/gcc/pic32mx/8.3.1/../../../../pic32mx/lib/fpu64\libc-musl.a(__towrite_rw.o)
 .xc_stack_usage.hdr
                0x0000000000000000        0xe g:/embedded tools/pic/xc32 compiler/bin/bin/../../lib/gcc/pic32mx/8.3.1/../../../../pic32mx/lib/fpu64\libc-musl.a(__towrite_rw.o)
 .note.GNU-stack
                0x0000000000000000        0x0 g:/embedded tools/pic/xc32 compiler/bin/bin/../../lib/gcc/pic32mx/8.3.1/../../../../pic32mx/lib/fpu64\libc-musl.a(__towrite_rw.o)
 .text          0x0000000000000000        0x0 g:/embedded tools/pic/xc32 compiler/bin/bin/../../lib/gcc/pic32mx/8.3.1/../../../../pic32mx/lib/fpu64\libc-musl.a(fwrite.o)
 .data          0x0000000000000000        0x0 g:/embedded tools/pic/xc32 compiler/bin/bin/../../lib/gcc/pic32mx/8.3.1/../../../../pic32mx/lib/fpu64\libc-musl.a(fwrite.o)
 .bss           0x0000000000000000        0x0 g:/embedded tools/pic/xc32 compiler/bin/bin/../../lib/gcc/pic32mx/8.3.1/../../../../pic32mx/lib/fpu64\libc-musl.a(fwrite.o)
 .reginfo       0x0000000000000000       0x18 g:/embedded tools/pic/xc32 compiler/bin/bin/../../lib/gcc/pic32mx/8.3.1/../../../../pic32mx/lib/fpu64\libc-musl.a(fwrite.o)
 .MIPS.abiflags
                0x0000000000000000       0x18 g:/embedded tools/pic/xc32 compiler/bin/bin/../../lib/gcc/pic32mx/8.3.1/../../../../pic32mx/lib/fpu64\libc-musl.a(fwrite.o)
 .xc_stack_usage
                0x0000000000000000       0x2e g:/embedded tools/pic/xc32 compiler/bin/bin/../../lib/gcc/pic32mx/8.3.1/../../../../pic32mx/lib/fpu64\libc-musl.a(fwrite.o)
 .text.__fwrite_min
                0x0000000000000000       0x20 g:/embedded tools/pic/xc32 compiler/bin/bin/../../lib/gcc/pic32mx/8.3.1/../../../../pic32mx/lib/fpu64\libc-musl.a(fwrite.o)
 .xc_stack_usage.hdr
                0x0000000000000000        0xe g:/embedded tools/pic/xc32 compiler/bin/bin/../../lib/gcc/pic32mx/8.3.1/../../../../pic32mx/lib/fpu64\libc-musl.a(fwrite.o)
 .note.GNU-stack
                0x0000000000000000        0x0 g:/embedded tools/pic/xc32 compiler/bin/bin/../../lib/gcc/pic32mx/8.3.1/../../../../pic32mx/lib/fpu64\libc-musl.a(fwrite.o)
 .text          0x0000000000000000        0x0 g:/embedded tools/pic/xc32 compiler/bin/bin/../../lib/gcc/pic32mx/8.3.1/../../../../pic32mx/lib/fpu64\libc-musl.a(putc.o)
 .data          0x0000000000000000        0x0 g:/embedded tools/pic/xc32 compiler/bin/bin/../../lib/gcc/pic32mx/8.3.1/../../../../pic32mx/lib/fpu64\libc-musl.a(putc.o)
 .bss           0x0000000000000000        0x0 g:/embedded tools/pic/xc32 compiler/bin/bin/../../lib/gcc/pic32mx/8.3.1/../../../../pic32mx/lib/fpu64\libc-musl.a(putc.o)
 .reginfo       0x0000000000000000       0x18 g:/embedded tools/pic/xc32 compiler/bin/bin/../../lib/gcc/pic32mx/8.3.1/../../../../pic32mx/lib/fpu64\libc-musl.a(putc.o)
 .MIPS.abiflags
                0x0000000000000000       0x18 g:/embedded tools/pic/xc32 compiler/bin/bin/../../lib/gcc/pic32mx/8.3.1/../../../../pic32mx/lib/fpu64\libc-musl.a(putc.o)
 .xc_stack_usage
                0x0000000000000000       0x4f g:/embedded tools/pic/xc32 compiler/bin/bin/../../lib/gcc/pic32mx/8.3.1/../../../../pic32mx/lib/fpu64\libc-musl.a(putc.o)
 .xc_stack_usage.hdr
                0x0000000000000000        0xe g:/embedded tools/pic/xc32 compiler/bin/bin/../../lib/gcc/pic32mx/8.3.1/../../../../pic32mx/lib/fpu64\libc-musl.a(putc.o)
 .note.GNU-stack
                0x0000000000000000        0x0 g:/embedded tools/pic/xc32 compiler/bin/bin/../../lib/gcc/pic32mx/8.3.1/../../../../pic32mx/lib/fpu64\libc-musl.a(putc.o)
 .text          0x0000000000000000        0x0 g:/embedded tools/pic/xc32 compiler/bin/bin/../../lib/gcc/pic32mx/8.3.1/../../../../pic32mx/lib/fpu64\libc-musl.a(setvbuf.o)
 .data          0x0000000000000000        0x0 g:/embedded tools/pic/xc32 compiler/bin/bin/../../lib/gcc/pic32mx/8.3.1/../../../../pic32mx/lib/fpu64\libc-musl.a(setvbuf.o)
 .bss           0x0000000000000000        0x0 g:/embedded tools/pic/xc32 compiler/bin/bin/../../lib/gcc/pic32mx/8.3.1/../../../../pic32mx/lib/fpu64\libc-musl.a(setvbuf.o)
 .reginfo       0x0000000000000000       0x18 g:/embedded tools/pic/xc32 compiler/bin/bin/../../lib/gcc/pic32mx/8.3.1/../../../../pic32mx/lib/fpu64\libc-musl.a(setvbuf.o)
 .MIPS.abiflags
                0x0000000000000000       0x18 g:/embedded tools/pic/xc32 compiler/bin/bin/../../lib/gcc/pic32mx/8.3.1/../../../../pic32mx/lib/fpu64\libc-musl.a(setvbuf.o)
 .xc_stack_usage
                0x0000000000000000       0x36 g:/embedded tools/pic/xc32 compiler/bin/bin/../../lib/gcc/pic32mx/8.3.1/../../../../pic32mx/lib/fpu64\libc-musl.a(setvbuf.o)
 .xc_stack_usage.hdr
                0x0000000000000000        0xe g:/embedded tools/pic/xc32 compiler/bin/bin/../../lib/gcc/pic32mx/8.3.1/../../../../pic32mx/lib/fpu64\libc-musl.a(setvbuf.o)
 .note.GNU-stack
                0x0000000000000000        0x0 g:/embedded tools/pic/xc32 compiler/bin/bin/../../lib/gcc/pic32mx/8.3.1/../../../../pic32mx/lib/fpu64\libc-musl.a(setvbuf.o)
 .text          0x0000000000000000        0x0 g:/embedded tools/pic/xc32 compiler/bin/bin/../../lib/gcc/pic32mx/8.3.1/../../../../pic32mx/lib/fpu64\libc-musl.a(memcpy.o)
 .data          0x0000000000000000        0x0 g:/embedded tools/pic/xc32 compiler/bin/bin/../../lib/gcc/pic32mx/8.3.1/../../../../pic32mx/lib/fpu64\libc-musl.a(memcpy.o)
 .bss           0x0000000000000000        0x0 g:/embedded tools/pic/xc32 compiler/bin/bin/../../lib/gcc/pic32mx/8.3.1/../../../../pic32mx/lib/fpu64\libc-musl.a(memcpy.o)
 .reginfo       0x0000000000000000       0x18 g:/embedded tools/pic/xc32 compiler/bin/bin/../../lib/gcc/pic32mx/8.3.1/../../../../pic32mx/lib/fpu64\libc-musl.a(memcpy.o)
 .MIPS.abiflags
                0x0000000000000000       0x18 g:/embedded tools/pic/xc32 compiler/bin/bin/../../lib/gcc/pic32mx/8.3.1/../../../../pic32mx/lib/fpu64\libc-musl.a(memcpy.o)
 .xc_stack_usage
                0x0000000000000000       0x14 g:/embedded tools/pic/xc32 compiler/bin/bin/../../lib/gcc/pic32mx/8.3.1/../../../../pic32mx/lib/fpu64\libc-musl.a(memcpy.o)
 .xc_stack_usage.hdr
                0x0000000000000000        0xe g:/embedded tools/pic/xc32 compiler/bin/bin/../../lib/gcc/pic32mx/8.3.1/../../../../pic32mx/lib/fpu64\libc-musl.a(memcpy.o)
 .note.GNU-stack
                0x0000000000000000        0x0 g:/embedded tools/pic/xc32 compiler/bin/bin/../../lib/gcc/pic32mx/8.3.1/../../../../pic32mx/lib/fpu64\libc-musl.a(memcpy.o)
 .text          0x0000000000000000        0x0 g:/embedded tools/pic/xc32 compiler/bin/bin/../../lib/gcc/pic32mx/8.3.1/../../../../pic32mx/lib/fpu64\libc-musl.a(strlen.o)
 .data          0x0000000000000000        0x0 g:/embedded tools/pic/xc32 compiler/bin/bin/../../lib/gcc/pic32mx/8.3.1/../../../../pic32mx/lib/fpu64\libc-musl.a(strlen.o)
 .bss           0x0000000000000000        0x0 g:/embedded tools/pic/xc32 compiler/bin/bin/../../lib/gcc/pic32mx/8.3.1/../../../../pic32mx/lib/fpu64\libc-musl.a(strlen.o)
 .reginfo       0x0000000000000000       0x18 g:/embedded tools/pic/xc32 compiler/bin/bin/../../lib/gcc/pic32mx/8.3.1/../../../../pic32mx/lib/fpu64\libc-musl.a(strlen.o)
 .MIPS.abiflags
                0x0000000000000000       0x18 g:/embedded tools/pic/xc32 compiler/bin/bin/../../lib/gcc/pic32mx/8.3.1/../../../../pic32mx/lib/fpu64\libc-musl.a(strlen.o)
 .xc_stack_usage
                0x0000000000000000       0x14 g:/embedded tools/pic/xc32 compiler/bin/bin/../../lib/gcc/pic32mx/8.3.1/../../../../pic32mx/lib/fpu64\libc-musl.a(strlen.o)
 .xc_stack_usage.hdr
                0x0000000000000000        0xe g:/embedded tools/pic/xc32 compiler/bin/bin/../../lib/gcc/pic32mx/8.3.1/../../../../pic32mx/lib/fpu64\libc-musl.a(strlen.o)
 .note.GNU-stack
                0x0000000000000000        0x0 g:/embedded tools/pic/xc32 compiler/bin/bin/../../lib/gcc/pic32mx/8.3.1/../../../../pic32mx/lib/fpu64\libc-musl.a(strlen.o)
 .text          0x0000000000000000        0x0 g:/embedded tools/pic/xc32 compiler/bin/bin/../../lib/gcc/pic32mx/8.3.1/../../../../pic32mx/lib/fpu64\libc-musl.a(readv.o)
 .data          0x0000000000000000        0x0 g:/embedded tools/pic/xc32 compiler/bin/bin/../../lib/gcc/pic32mx/8.3.1/../../../../pic32mx/lib/fpu64\libc-musl.a(readv.o)
 .bss           0x0000000000000000        0x0 g:/embedded tools/pic/xc32 compiler/bin/bin/../../lib/gcc/pic32mx/8.3.1/../../../../pic32mx/lib/fpu64\libc-musl.a(readv.o)
 .reginfo       0x0000000000000000       0x18 g:/embedded tools/pic/xc32 compiler/bin/bin/../../lib/gcc/pic32mx/8.3.1/../../../../pic32mx/lib/fpu64\libc-musl.a(readv.o)
 .MIPS.abiflags
                0x0000000000000000       0x18 g:/embedded tools/pic/xc32 compiler/bin/bin/../../lib/gcc/pic32mx/8.3.1/../../../../pic32mx/lib/fpu64\libc-musl.a(readv.o)
 .xc_stack_usage
                0x0000000000000000       0x15 g:/embedded tools/pic/xc32 compiler/bin/bin/../../lib/gcc/pic32mx/8.3.1/../../../../pic32mx/lib/fpu64\libc-musl.a(readv.o)
 .xc_stack_usage.hdr
                0x0000000000000000        0xe g:/embedded tools/pic/xc32 compiler/bin/bin/../../lib/gcc/pic32mx/8.3.1/../../../../pic32mx/lib/fpu64\libc-musl.a(readv.o)
 .note.GNU-stack
                0x0000000000000000        0x0 g:/embedded tools/pic/xc32 compiler/bin/bin/../../lib/gcc/pic32mx/8.3.1/../../../../pic32mx/lib/fpu64\libc-musl.a(readv.o)
 .text          0x0000000000000000        0x0 g:/embedded tools/pic/xc32 compiler/bin/bin/../../lib/gcc/pic32mx/8.3.1/../../../../pic32mx/lib/fpu64\libc-musl.a(malloc.o)
 .data          0x0000000000000000        0x0 g:/embedded tools/pic/xc32 compiler/bin/bin/../../lib/gcc/pic32mx/8.3.1/../../../../pic32mx/lib/fpu64\libc-musl.a(malloc.o)
 .reginfo       0x0000000000000000       0x18 g:/embedded tools/pic/xc32 compiler/bin/bin/../../lib/gcc/pic32mx/8.3.1/../../../../pic32mx/lib/fpu64\libc-musl.a(malloc.o)
 .MIPS.abiflags
                0x0000000000000000       0x18 g:/embedded tools/pic/xc32 compiler/bin/bin/../../lib/gcc/pic32mx/8.3.1/../../../../pic32mx/lib/fpu64\libc-musl.a(malloc.o)
 .xc_stack_usage
                0x0000000000000000       0xeb g:/embedded tools/pic/xc32 compiler/bin/bin/../../lib/gcc/pic32mx/8.3.1/../../../../pic32mx/lib/fpu64\libc-musl.a(malloc.o)
 .text.__malloc0
                0x0000000000000000       0x50 g:/embedded tools/pic/xc32 compiler/bin/bin/../../lib/gcc/pic32mx/8.3.1/../../../../pic32mx/lib/fpu64\libc-musl.a(malloc.o)
 .text.realloc  0x0000000000000000      0x118 g:/embedded tools/pic/xc32 compiler/bin/bin/../../lib/gcc/pic32mx/8.3.1/../../../../pic32mx/lib/fpu64\libc-musl.a(malloc.o)
 .xc_stack_usage.hdr
                0x0000000000000000        0xe g:/embedded tools/pic/xc32 compiler/bin/bin/../../lib/gcc/pic32mx/8.3.1/../../../../pic32mx/lib/fpu64\libc-musl.a(malloc.o)
 .note.GNU-stack
                0x0000000000000000        0x0 g:/embedded tools/pic/xc32 compiler/bin/bin/../../lib/gcc/pic32mx/8.3.1/../../../../pic32mx/lib/fpu64\libc-musl.a(malloc.o)
 .text          0x0000000000000000        0x0 g:/embedded tools/pic/xc32 compiler/bin/bin/../../lib/gcc/pic32mx/8.3.1/../../../../pic32mx/lib/fpu64\libc-musl.a(expand_heap.o)
 .data          0x0000000000000000        0x0 g:/embedded tools/pic/xc32 compiler/bin/bin/../../lib/gcc/pic32mx/8.3.1/../../../../pic32mx/lib/fpu64\libc-musl.a(expand_heap.o)
 .bss           0x0000000000000000        0x0 g:/embedded tools/pic/xc32 compiler/bin/bin/../../lib/gcc/pic32mx/8.3.1/../../../../pic32mx/lib/fpu64\libc-musl.a(expand_heap.o)
 .reginfo       0x0000000000000000       0x18 g:/embedded tools/pic/xc32 compiler/bin/bin/../../lib/gcc/pic32mx/8.3.1/../../../../pic32mx/lib/fpu64\libc-musl.a(expand_heap.o)
 .MIPS.abiflags
                0x0000000000000000       0x18 g:/embedded tools/pic/xc32 compiler/bin/bin/../../lib/gcc/pic32mx/8.3.1/../../../../pic32mx/lib/fpu64\libc-musl.a(expand_heap.o)
 .xc_stack_usage
                0x0000000000000000       0x1b g:/embedded tools/pic/xc32 compiler/bin/bin/../../lib/gcc/pic32mx/8.3.1/../../../../pic32mx/lib/fpu64\libc-musl.a(expand_heap.o)
 .xc_stack_usage.hdr
                0x0000000000000000        0xe g:/embedded tools/pic/xc32 compiler/bin/bin/../../lib/gcc/pic32mx/8.3.1/../../../../pic32mx/lib/fpu64\libc-musl.a(expand_heap.o)
 .note.GNU-stack
                0x0000000000000000        0x0 g:/embedded tools/pic/xc32 compiler/bin/bin/../../lib/gcc/pic32mx/8.3.1/../../../../pic32mx/lib/fpu64\libc-musl.a(expand_heap.o)
 .text          0x0000000000000000        0x0 g:/embedded tools/pic/xc32 compiler/bin/bin/../../lib/gcc/pic32mx/8.3.1/../../../../pic32mx/lib/fpu64\libc-musl.a(__fopen_rw.o)
 .data          0x0000000000000000        0x0 g:/embedded tools/pic/xc32 compiler/bin/bin/../../lib/gcc/pic32mx/8.3.1/../../../../pic32mx/lib/fpu64\libc-musl.a(__fopen_rw.o)
 .bss           0x0000000000000000        0x0 g:/embedded tools/pic/xc32 compiler/bin/bin/../../lib/gcc/pic32mx/8.3.1/../../../../pic32mx/lib/fpu64\libc-musl.a(__fopen_rw.o)
 .reginfo       0x0000000000000000       0x18 g:/embedded tools/pic/xc32 compiler/bin/bin/../../lib/gcc/pic32mx/8.3.1/../../../../pic32mx/lib/fpu64\libc-musl.a(__fopen_rw.o)
 .MIPS.abiflags
                0x0000000000000000       0x18 g:/embedded tools/pic/xc32 compiler/bin/bin/../../lib/gcc/pic32mx/8.3.1/../../../../pic32mx/lib/fpu64\libc-musl.a(__fopen_rw.o)
 .xc_stack_usage
                0x0000000000000000       0x18 g:/embedded tools/pic/xc32 compiler/bin/bin/../../lib/gcc/pic32mx/8.3.1/../../../../pic32mx/lib/fpu64\libc-musl.a(__fopen_rw.o)
 .text.__fopen_rw
                0x0000000000000000       0x88 g:/embedded tools/pic/xc32 compiler/bin/bin/../../lib/gcc/pic32mx/8.3.1/../../../../pic32mx/lib/fpu64\libc-musl.a(__fopen_rw.o)
 .xc_stack_usage.hdr
                0x0000000000000000        0xe g:/embedded tools/pic/xc32 compiler/bin/bin/../../lib/gcc/pic32mx/8.3.1/../../../../pic32mx/lib/fpu64\libc-musl.a(__fopen_rw.o)
 .note.GNU-stack
                0x0000000000000000        0x0 g:/embedded tools/pic/xc32 compiler/bin/bin/../../lib/gcc/pic32mx/8.3.1/../../../../pic32mx/lib/fpu64\libc-musl.a(__fopen_rw.o)
 .text          0x0000000000000000        0x0 g:/embedded tools/pic/xc32 compiler/bin/bin/../../lib/gcc/pic32mx/8.3.1/../../../../pic32mx/lib/fpu64\libc-musl.a(__ftello_rw.o)
 .data          0x0000000000000000        0x0 g:/embedded tools/pic/xc32 compiler/bin/bin/../../lib/gcc/pic32mx/8.3.1/../../../../pic32mx/lib/fpu64\libc-musl.a(__ftello_rw.o)
 .bss           0x0000000000000000        0x0 g:/embedded tools/pic/xc32 compiler/bin/bin/../../lib/gcc/pic32mx/8.3.1/../../../../pic32mx/lib/fpu64\libc-musl.a(__ftello_rw.o)
 .reginfo       0x0000000000000000       0x18 g:/embedded tools/pic/xc32 compiler/bin/bin/../../lib/gcc/pic32mx/8.3.1/../../../../pic32mx/lib/fpu64\libc-musl.a(__ftello_rw.o)
 .MIPS.abiflags
                0x0000000000000000       0x18 g:/embedded tools/pic/xc32 compiler/bin/bin/../../lib/gcc/pic32mx/8.3.1/../../../../pic32mx/lib/fpu64\libc-musl.a(__ftello_rw.o)
 .xc_stack_usage
                0x0000000000000000       0x1d g:/embedded tools/pic/xc32 compiler/bin/bin/../../lib/gcc/pic32mx/8.3.1/../../../../pic32mx/lib/fpu64\libc-musl.a(__ftello_rw.o)
 .text.__ftello_adj_rw
                0x0000000000000000       0x48 g:/embedded tools/pic/xc32 compiler/bin/bin/../../lib/gcc/pic32mx/8.3.1/../../../../pic32mx/lib/fpu64\libc-musl.a(__ftello_rw.o)
 .xc_stack_usage.hdr
                0x0000000000000000        0xe g:/embedded tools/pic/xc32 compiler/bin/bin/../../lib/gcc/pic32mx/8.3.1/../../../../pic32mx/lib/fpu64\libc-musl.a(__ftello_rw.o)
 .note.GNU-stack
                0x0000000000000000        0x0 g:/embedded tools/pic/xc32 compiler/bin/bin/../../lib/gcc/pic32mx/8.3.1/../../../../pic32mx/lib/fpu64\libc-musl.a(__ftello_rw.o)
 .text          0x0000000000000000        0x0 g:/embedded tools/pic/xc32 compiler/bin/bin/../../lib/gcc/pic32mx/8.3.1/../../../../pic32mx/lib/fpu64\libc-musl.a(__init_stdio.o)
 .data          0x0000000000000000        0x0 g:/embedded tools/pic/xc32 compiler/bin/bin/../../lib/gcc/pic32mx/8.3.1/../../../../pic32mx/lib/fpu64\libc-musl.a(__init_stdio.o)
 .bss           0x0000000000000000        0x0 g:/embedded tools/pic/xc32 compiler/bin/bin/../../lib/gcc/pic32mx/8.3.1/../../../../pic32mx/lib/fpu64\libc-musl.a(__init_stdio.o)
 .reginfo       0x0000000000000000       0x18 g:/embedded tools/pic/xc32 compiler/bin/bin/../../lib/gcc/pic32mx/8.3.1/../../../../pic32mx/lib/fpu64\libc-musl.a(__init_stdio.o)
 .MIPS.abiflags
                0x0000000000000000       0x18 g:/embedded tools/pic/xc32 compiler/bin/bin/../../lib/gcc/pic32mx/8.3.1/../../../../pic32mx/lib/fpu64\libc-musl.a(__init_stdio.o)
 .xc_stack_usage
                0x0000000000000000       0x2f g:/embedded tools/pic/xc32 compiler/bin/bin/../../lib/gcc/pic32mx/8.3.1/../../../../pic32mx/lib/fpu64\libc-musl.a(__init_stdio.o)
 .text.__dummy  0x0000000000000000        0x8 g:/embedded tools/pic/xc32 compiler/bin/bin/../../lib/gcc/pic32mx/8.3.1/../../../../pic32mx/lib/fpu64\libc-musl.a(__init_stdio.o)
 .text.__init_stdio
                0x0000000000000000       0x2c g:/embedded tools/pic/xc32 compiler/bin/bin/../../lib/gcc/pic32mx/8.3.1/../../../../pic32mx/lib/fpu64\libc-musl.a(__init_stdio.o)
 .xc_stack_usage.hdr
                0x0000000000000000        0xe g:/embedded tools/pic/xc32 compiler/bin/bin/../../lib/gcc/pic32mx/8.3.1/../../../../pic32mx/lib/fpu64\libc-musl.a(__init_stdio.o)
 .note.GNU-stack
                0x0000000000000000        0x0 g:/embedded tools/pic/xc32 compiler/bin/bin/../../lib/gcc/pic32mx/8.3.1/../../../../pic32mx/lib/fpu64\libc-musl.a(__init_stdio.o)
 .text          0x0000000000000000        0x0 g:/embedded tools/pic/xc32 compiler/bin/bin/../../lib/gcc/pic32mx/8.3.1/../../../../pic32mx/lib/fpu64\libc-musl.a(__io_buf_needed.o)
 .data          0x0000000000000000        0x0 g:/embedded tools/pic/xc32 compiler/bin/bin/../../lib/gcc/pic32mx/8.3.1/../../../../pic32mx/lib/fpu64\libc-musl.a(__io_buf_needed.o)
 .bss           0x0000000000000000        0x0 g:/embedded tools/pic/xc32 compiler/bin/bin/../../lib/gcc/pic32mx/8.3.1/../../../../pic32mx/lib/fpu64\libc-musl.a(__io_buf_needed.o)
 .reginfo       0x0000000000000000       0x18 g:/embedded tools/pic/xc32 compiler/bin/bin/../../lib/gcc/pic32mx/8.3.1/../../../../pic32mx/lib/fpu64\libc-musl.a(__io_buf_needed.o)
 .MIPS.abiflags
                0x0000000000000000       0x18 g:/embedded tools/pic/xc32 compiler/bin/bin/../../lib/gcc/pic32mx/8.3.1/../../../../pic32mx/lib/fpu64\libc-musl.a(__io_buf_needed.o)
 .xc_stack_usage
                0x0000000000000000       0x1d g:/embedded tools/pic/xc32 compiler/bin/bin/../../lib/gcc/pic32mx/8.3.1/../../../../pic32mx/lib/fpu64\libc-musl.a(__io_buf_needed.o)
 .xc_stack_usage.hdr
                0x0000000000000000        0xe g:/embedded tools/pic/xc32 compiler/bin/bin/../../lib/gcc/pic32mx/8.3.1/../../../../pic32mx/lib/fpu64\libc-musl.a(__io_buf_needed.o)
 .note.GNU-stack
                0x0000000000000000        0x0 g:/embedded tools/pic/xc32 compiler/bin/bin/../../lib/gcc/pic32mx/8.3.1/../../../../pic32mx/lib/fpu64\libc-musl.a(__io_buf_needed.o)
 .text          0x0000000000000000        0x0 g:/embedded tools/pic/xc32 compiler/bin/bin/../../lib/gcc/pic32mx/8.3.1/../../../../pic32mx/lib/fpu64\libc-musl.a(__io_file_needed.o)
 .data          0x0000000000000000        0x0 g:/embedded tools/pic/xc32 compiler/bin/bin/../../lib/gcc/pic32mx/8.3.1/../../../../pic32mx/lib/fpu64\libc-musl.a(__io_file_needed.o)
 .bss           0x0000000000000000        0x0 g:/embedded tools/pic/xc32 compiler/bin/bin/../../lib/gcc/pic32mx/8.3.1/../../../../pic32mx/lib/fpu64\libc-musl.a(__io_file_needed.o)
 .reginfo       0x0000000000000000       0x18 g:/embedded tools/pic/xc32 compiler/bin/bin/../../lib/gcc/pic32mx/8.3.1/../../../../pic32mx/lib/fpu64\libc-musl.a(__io_file_needed.o)
 .MIPS.abiflags
                0x0000000000000000       0x18 g:/embedded tools/pic/xc32 compiler/bin/bin/../../lib/gcc/pic32mx/8.3.1/../../../../pic32mx/lib/fpu64\libc-musl.a(__io_file_needed.o)
 .xc_stack_usage
                0x0000000000000000       0x1e g:/embedded tools/pic/xc32 compiler/bin/bin/../../lib/gcc/pic32mx/8.3.1/../../../../pic32mx/lib/fpu64\libc-musl.a(__io_file_needed.o)
 .xc_stack_usage.hdr
                0x0000000000000000        0xe g:/embedded tools/pic/xc32 compiler/bin/bin/../../lib/gcc/pic32mx/8.3.1/../../../../pic32mx/lib/fpu64\libc-musl.a(__io_file_needed.o)
 .note.GNU-stack
                0x0000000000000000        0x0 g:/embedded tools/pic/xc32 compiler/bin/bin/../../lib/gcc/pic32mx/8.3.1/../../../../pic32mx/lib/fpu64\libc-musl.a(__io_file_needed.o)
 .text          0x0000000000000000        0x0 g:/embedded tools/pic/xc32 compiler/bin/bin/../../lib/gcc/pic32mx/8.3.1/../../../../pic32mx/lib/fpu64\libc-musl.a(__io_std_needed.o)
 .data          0x0000000000000000        0x0 g:/embedded tools/pic/xc32 compiler/bin/bin/../../lib/gcc/pic32mx/8.3.1/../../../../pic32mx/lib/fpu64\libc-musl.a(__io_std_needed.o)
 .bss           0x0000000000000000        0x0 g:/embedded tools/pic/xc32 compiler/bin/bin/../../lib/gcc/pic32mx/8.3.1/../../../../pic32mx/lib/fpu64\libc-musl.a(__io_std_needed.o)
 .reginfo       0x0000000000000000       0x18 g:/embedded tools/pic/xc32 compiler/bin/bin/../../lib/gcc/pic32mx/8.3.1/../../../../pic32mx/lib/fpu64\libc-musl.a(__io_std_needed.o)
 .MIPS.abiflags
                0x0000000000000000       0x18 g:/embedded tools/pic/xc32 compiler/bin/bin/../../lib/gcc/pic32mx/8.3.1/../../../../pic32mx/lib/fpu64\libc-musl.a(__io_std_needed.o)
 .xc_stack_usage
                0x0000000000000000       0x1d g:/embedded tools/pic/xc32 compiler/bin/bin/../../lib/gcc/pic32mx/8.3.1/../../../../pic32mx/lib/fpu64\libc-musl.a(__io_std_needed.o)
 .xc_stack_usage.hdr
                0x0000000000000000        0xe g:/embedded tools/pic/xc32 compiler/bin/bin/../../lib/gcc/pic32mx/8.3.1/../../../../pic32mx/lib/fpu64\libc-musl.a(__io_std_needed.o)
 .note.GNU-stack
                0x0000000000000000        0x0 g:/embedded tools/pic/xc32 compiler/bin/bin/../../lib/gcc/pic32mx/8.3.1/../../../../pic32mx/lib/fpu64\libc-musl.a(__io_std_needed.o)
 .text          0x0000000000000000        0x0 g:/embedded tools/pic/xc32 compiler/bin/bin/../../lib/gcc/pic32mx/8.3.1/../../../../pic32mx/lib/fpu64\libc-musl.a(__putc.o)
 .data          0x0000000000000000        0x0 g:/embedded tools/pic/xc32 compiler/bin/bin/../../lib/gcc/pic32mx/8.3.1/../../../../pic32mx/lib/fpu64\libc-musl.a(__putc.o)
 .bss           0x0000000000000000        0x0 g:/embedded tools/pic/xc32 compiler/bin/bin/../../lib/gcc/pic32mx/8.3.1/../../../../pic32mx/lib/fpu64\libc-musl.a(__putc.o)
 .reginfo       0x0000000000000000       0x18 g:/embedded tools/pic/xc32 compiler/bin/bin/../../lib/gcc/pic32mx/8.3.1/../../../../pic32mx/lib/fpu64\libc-musl.a(__putc.o)
 .MIPS.abiflags
                0x0000000000000000       0x18 g:/embedded tools/pic/xc32 compiler/bin/bin/../../lib/gcc/pic32mx/8.3.1/../../../../pic32mx/lib/fpu64\libc-musl.a(__putc.o)
 .xc_stack_usage
                0x0000000000000000       0x14 g:/embedded tools/pic/xc32 compiler/bin/bin/../../lib/gcc/pic32mx/8.3.1/../../../../pic32mx/lib/fpu64\libc-musl.a(__putc.o)
 .xc_stack_usage.hdr
                0x0000000000000000        0xe g:/embedded tools/pic/xc32 compiler/bin/bin/../../lib/gcc/pic32mx/8.3.1/../../../../pic32mx/lib/fpu64\libc-musl.a(__putc.o)
 .note.GNU-stack
                0x0000000000000000        0x0 g:/embedded tools/pic/xc32 compiler/bin/bin/../../lib/gcc/pic32mx/8.3.1/../../../../pic32mx/lib/fpu64\libc-musl.a(__putc.o)
 .text          0x0000000000000000        0x0 g:/embedded tools/pic/xc32 compiler/bin/bin/../../lib/gcc/pic32mx/8.3.1/../../../../pic32mx/lib/fpu64\libc-musl.a(__stderr.o)
 .data          0x0000000000000000       0x60 g:/embedded tools/pic/xc32 compiler/bin/bin/../../lib/gcc/pic32mx/8.3.1/../../../../pic32mx/lib/fpu64\libc-musl.a(__stderr.o)
 .bss           0x0000000000000000        0x0 g:/embedded tools/pic/xc32 compiler/bin/bin/../../lib/gcc/pic32mx/8.3.1/../../../../pic32mx/lib/fpu64\libc-musl.a(__stderr.o)
 .reginfo       0x0000000000000000       0x18 g:/embedded tools/pic/xc32 compiler/bin/bin/../../lib/gcc/pic32mx/8.3.1/../../../../pic32mx/lib/fpu64\libc-musl.a(__stderr.o)
 .MIPS.abiflags
                0x0000000000000000       0x18 g:/embedded tools/pic/xc32 compiler/bin/bin/../../lib/gcc/pic32mx/8.3.1/../../../../pic32mx/lib/fpu64\libc-musl.a(__stderr.o)
 .xc_stack_usage
                0x0000000000000000       0x50 g:/embedded tools/pic/xc32 compiler/bin/bin/../../lib/gcc/pic32mx/8.3.1/../../../../pic32mx/lib/fpu64\libc-musl.a(__stderr.o)
 .text.__dummy  0x0000000000000000        0x8 g:/embedded tools/pic/xc32 compiler/bin/bin/../../lib/gcc/pic32mx/8.3.1/../../../../pic32mx/lib/fpu64\libc-musl.a(__stderr.o)
 .text.__get_stderr
                0x0000000000000000        0xc g:/embedded tools/pic/xc32 compiler/bin/bin/../../lib/gcc/pic32mx/8.3.1/../../../../pic32mx/lib/fpu64\libc-musl.a(__stderr.o)
 .xc_stack_usage.hdr
                0x0000000000000000        0xe g:/embedded tools/pic/xc32 compiler/bin/bin/../../lib/gcc/pic32mx/8.3.1/../../../../pic32mx/lib/fpu64\libc-musl.a(__stderr.o)
 .note.GNU-stack
                0x0000000000000000        0x0 g:/embedded tools/pic/xc32 compiler/bin/bin/../../lib/gcc/pic32mx/8.3.1/../../../../pic32mx/lib/fpu64\libc-musl.a(__stderr.o)
 .text          0x0000000000000000        0x0 g:/embedded tools/pic/xc32 compiler/bin/bin/../../lib/gcc/pic32mx/8.3.1/../../../../pic32mx/lib/fpu64\libc-musl.a(__stdio_exit.o)
 .data          0x0000000000000000        0x0 g:/embedded tools/pic/xc32 compiler/bin/bin/../../lib/gcc/pic32mx/8.3.1/../../../../pic32mx/lib/fpu64\libc-musl.a(__stdio_exit.o)
 .bss           0x0000000000000000        0x4 g:/embedded tools/pic/xc32 compiler/bin/bin/../../lib/gcc/pic32mx/8.3.1/../../../../pic32mx/lib/fpu64\libc-musl.a(__stdio_exit.o)
 .reginfo       0x0000000000000000       0x18 g:/embedded tools/pic/xc32 compiler/bin/bin/../../lib/gcc/pic32mx/8.3.1/../../../../pic32mx/lib/fpu64\libc-musl.a(__stdio_exit.o)
 .MIPS.abiflags
                0x0000000000000000       0x18 g:/embedded tools/pic/xc32 compiler/bin/bin/../../lib/gcc/pic32mx/8.3.1/../../../../pic32mx/lib/fpu64\libc-musl.a(__stdio_exit.o)
 .xc_stack_usage
                0x0000000000000000       0x45 g:/embedded tools/pic/xc32 compiler/bin/bin/../../lib/gcc/pic32mx/8.3.1/../../../../pic32mx/lib/fpu64\libc-musl.a(__stdio_exit.o)
 .text.__dummy  0x0000000000000000        0x8 g:/embedded tools/pic/xc32 compiler/bin/bin/../../lib/gcc/pic32mx/8.3.1/../../../../pic32mx/lib/fpu64\libc-musl.a(__stdio_exit.o)
 .text.__dummy1
                0x0000000000000000        0x8 g:/embedded tools/pic/xc32 compiler/bin/bin/../../lib/gcc/pic32mx/8.3.1/../../../../pic32mx/lib/fpu64\libc-musl.a(__stdio_exit.o)
 .text.__stdio_exit
                0x0000000000000000       0x4c g:/embedded tools/pic/xc32 compiler/bin/bin/../../lib/gcc/pic32mx/8.3.1/../../../../pic32mx/lib/fpu64\libc-musl.a(__stdio_exit.o)
 .xc_stack_usage.hdr
                0x0000000000000000        0xe g:/embedded tools/pic/xc32 compiler/bin/bin/../../lib/gcc/pic32mx/8.3.1/../../../../pic32mx/lib/fpu64\libc-musl.a(__stdio_exit.o)
 .note.GNU-stack
                0x0000000000000000        0x0 g:/embedded tools/pic/xc32 compiler/bin/bin/../../lib/gcc/pic32mx/8.3.1/../../../../pic32mx/lib/fpu64\libc-musl.a(__stdio_exit.o)
 .text          0x0000000000000000        0x0 g:/embedded tools/pic/xc32 compiler/bin/bin/../../lib/gcc/pic32mx/8.3.1/../../../../pic32mx/lib/fpu64\libc-musl.a(__stdio_write.o)
 .data          0x0000000000000000        0x0 g:/embedded tools/pic/xc32 compiler/bin/bin/../../lib/gcc/pic32mx/8.3.1/../../../../pic32mx/lib/fpu64\libc-musl.a(__stdio_write.o)
 .bss           0x0000000000000000        0x0 g:/embedded tools/pic/xc32 compiler/bin/bin/../../lib/gcc/pic32mx/8.3.1/../../../../pic32mx/lib/fpu64\libc-musl.a(__stdio_write.o)
 .reginfo       0x0000000000000000       0x18 g:/embedded tools/pic/xc32 compiler/bin/bin/../../lib/gcc/pic32mx/8.3.1/../../../../pic32mx/lib/fpu64\libc-musl.a(__stdio_write.o)
 .MIPS.abiflags
                0x0000000000000000       0x18 g:/embedded tools/pic/xc32 compiler/bin/bin/../../lib/gcc/pic32mx/8.3.1/../../../../pic32mx/lib/fpu64\libc-musl.a(__stdio_write.o)
 .xc_stack_usage
                0x0000000000000000       0x42 g:/embedded tools/pic/xc32 compiler/bin/bin/../../lib/gcc/pic32mx/8.3.1/../../../../pic32mx/lib/fpu64\libc-musl.a(__stdio_write.o)
 .xc_stack_usage.hdr
                0x0000000000000000        0xe g:/embedded tools/pic/xc32 compiler/bin/bin/../../lib/gcc/pic32mx/8.3.1/../../../../pic32mx/lib/fpu64\libc-musl.a(__stdio_write.o)
 .note.GNU-stack
                0x0000000000000000        0x0 g:/embedded tools/pic/xc32 compiler/bin/bin/../../lib/gcc/pic32mx/8.3.1/../../../../pic32mx/lib/fpu64\libc-musl.a(__stdio_write.o)
 .text          0x0000000000000000        0x0 g:/embedded tools/pic/xc32 compiler/bin/bin/../../lib/gcc/pic32mx/8.3.1/../../../../pic32mx/lib/fpu64\libc-musl.a(__stdout.o)
 .data          0x0000000000000000       0x60 g:/embedded tools/pic/xc32 compiler/bin/bin/../../lib/gcc/pic32mx/8.3.1/../../../../pic32mx/lib/fpu64\libc-musl.a(__stdout.o)
 .bss           0x0000000000000000        0x0 g:/embedded tools/pic/xc32 compiler/bin/bin/../../lib/gcc/pic32mx/8.3.1/../../../../pic32mx/lib/fpu64\libc-musl.a(__stdout.o)
 .reginfo       0x0000000000000000       0x18 g:/embedded tools/pic/xc32 compiler/bin/bin/../../lib/gcc/pic32mx/8.3.1/../../../../pic32mx/lib/fpu64\libc-musl.a(__stdout.o)
 .MIPS.abiflags
                0x0000000000000000       0x18 g:/embedded tools/pic/xc32 compiler/bin/bin/../../lib/gcc/pic32mx/8.3.1/../../../../pic32mx/lib/fpu64\libc-musl.a(__stdout.o)
 .xc_stack_usage
                0x0000000000000000       0x50 g:/embedded tools/pic/xc32 compiler/bin/bin/../../lib/gcc/pic32mx/8.3.1/../../../../pic32mx/lib/fpu64\libc-musl.a(__stdout.o)
 .text.__dummy  0x0000000000000000        0x8 g:/embedded tools/pic/xc32 compiler/bin/bin/../../lib/gcc/pic32mx/8.3.1/../../../../pic32mx/lib/fpu64\libc-musl.a(__stdout.o)
 .text.__get_stdout
                0x0000000000000000        0xc g:/embedded tools/pic/xc32 compiler/bin/bin/../../lib/gcc/pic32mx/8.3.1/../../../../pic32mx/lib/fpu64\libc-musl.a(__stdout.o)
 .xc_stack_usage.hdr
                0x0000000000000000        0xe g:/embedded tools/pic/xc32 compiler/bin/bin/../../lib/gcc/pic32mx/8.3.1/../../../../pic32mx/lib/fpu64\libc-musl.a(__stdout.o)
 .note.GNU-stack
                0x0000000000000000        0x0 g:/embedded tools/pic/xc32 compiler/bin/bin/../../lib/gcc/pic32mx/8.3.1/../../../../pic32mx/lib/fpu64\libc-musl.a(__stdout.o)
 .text          0x0000000000000000        0x0 g:/embedded tools/pic/xc32 compiler/bin/bin/../../lib/gcc/pic32mx/8.3.1/../../../../pic32mx/lib/fpu64\libc-musl.a(__towrite.o)
 .data          0x0000000000000000        0x0 g:/embedded tools/pic/xc32 compiler/bin/bin/../../lib/gcc/pic32mx/8.3.1/../../../../pic32mx/lib/fpu64\libc-musl.a(__towrite.o)
 .bss           0x0000000000000000        0x0 g:/embedded tools/pic/xc32 compiler/bin/bin/../../lib/gcc/pic32mx/8.3.1/../../../../pic32mx/lib/fpu64\libc-musl.a(__towrite.o)
 .reginfo       0x0000000000000000       0x18 g:/embedded tools/pic/xc32 compiler/bin/bin/../../lib/gcc/pic32mx/8.3.1/../../../../pic32mx/lib/fpu64\libc-musl.a(__towrite.o)
 .MIPS.abiflags
                0x0000000000000000       0x18 g:/embedded tools/pic/xc32 compiler/bin/bin/../../lib/gcc/pic32mx/8.3.1/../../../../pic32mx/lib/fpu64\libc-musl.a(__towrite.o)
 .xc_stack_usage
                0x0000000000000000       0x2c g:/embedded tools/pic/xc32 compiler/bin/bin/../../lib/gcc/pic32mx/8.3.1/../../../../pic32mx/lib/fpu64\libc-musl.a(__towrite.o)
 .text.__dummy  0x0000000000000000        0x8 g:/embedded tools/pic/xc32 compiler/bin/bin/../../lib/gcc/pic32mx/8.3.1/../../../../pic32mx/lib/fpu64\libc-musl.a(__towrite.o)
 .xc_stack_usage.hdr
                0x0000000000000000        0xe g:/embedded tools/pic/xc32 compiler/bin/bin/../../lib/gcc/pic32mx/8.3.1/../../../../pic32mx/lib/fpu64\libc-musl.a(__towrite.o)
 .note.GNU-stack
                0x0000000000000000        0x0 g:/embedded tools/pic/xc32 compiler/bin/bin/../../lib/gcc/pic32mx/8.3.1/../../../../pic32mx/lib/fpu64\libc-musl.a(__towrite.o)
 .text          0x0000000000000000        0x0 g:/embedded tools/pic/xc32 compiler/bin/bin/../../lib/gcc/pic32mx/8.3.1/../../../../pic32mx/lib/fpu64\libc-musl.a(memset.o)
 .data          0x0000000000000000        0x0 g:/embedded tools/pic/xc32 compiler/bin/bin/../../lib/gcc/pic32mx/8.3.1/../../../../pic32mx/lib/fpu64\libc-musl.a(memset.o)
 .bss           0x0000000000000000        0x0 g:/embedded tools/pic/xc32 compiler/bin/bin/../../lib/gcc/pic32mx/8.3.1/../../../../pic32mx/lib/fpu64\libc-musl.a(memset.o)
 .reginfo       0x0000000000000000       0x18 g:/embedded tools/pic/xc32 compiler/bin/bin/../../lib/gcc/pic32mx/8.3.1/../../../../pic32mx/lib/fpu64\libc-musl.a(memset.o)
 .MIPS.abiflags
                0x0000000000000000       0x18 g:/embedded tools/pic/xc32 compiler/bin/bin/../../lib/gcc/pic32mx/8.3.1/../../../../pic32mx/lib/fpu64\libc-musl.a(memset.o)
 .xc_stack_usage
                0x0000000000000000       0x14 g:/embedded tools/pic/xc32 compiler/bin/bin/../../lib/gcc/pic32mx/8.3.1/../../../../pic32mx/lib/fpu64\libc-musl.a(memset.o)
 .text.memset   0x0000000000000000       0x28 g:/embedded tools/pic/xc32 compiler/bin/bin/../../lib/gcc/pic32mx/8.3.1/../../../../pic32mx/lib/fpu64\libc-musl.a(memset.o)
 .xc_stack_usage.hdr
                0x0000000000000000        0xe g:/embedded tools/pic/xc32 compiler/bin/bin/../../lib/gcc/pic32mx/8.3.1/../../../../pic32mx/lib/fpu64\libc-musl.a(memset.o)
 .note.GNU-stack
                0x0000000000000000        0x0 g:/embedded tools/pic/xc32 compiler/bin/bin/../../lib/gcc/pic32mx/8.3.1/../../../../pic32mx/lib/fpu64\libc-musl.a(memset.o)
 .text          0x0000000000000000        0x0 g:/embedded tools/pic/xc32 compiler/bin/bin/../../lib/gcc/pic32mx/8.3.1/../../../../pic32mx/lib/fpu64\libc-musl.a(writev.o)
 .data          0x0000000000000000        0x0 g:/embedded tools/pic/xc32 compiler/bin/bin/../../lib/gcc/pic32mx/8.3.1/../../../../pic32mx/lib/fpu64\libc-musl.a(writev.o)
 .bss           0x0000000000000000        0x0 g:/embedded tools/pic/xc32 compiler/bin/bin/../../lib/gcc/pic32mx/8.3.1/../../../../pic32mx/lib/fpu64\libc-musl.a(writev.o)
 .reginfo       0x0000000000000000       0x18 g:/embedded tools/pic/xc32 compiler/bin/bin/../../lib/gcc/pic32mx/8.3.1/../../../../pic32mx/lib/fpu64\libc-musl.a(writev.o)
 .MIPS.abiflags
                0x0000000000000000       0x18 g:/embedded tools/pic/xc32 compiler/bin/bin/../../lib/gcc/pic32mx/8.3.1/../../../../pic32mx/lib/fpu64\libc-musl.a(writev.o)
 .xc_stack_usage
                0x0000000000000000       0x16 g:/embedded tools/pic/xc32 compiler/bin/bin/../../lib/gcc/pic32mx/8.3.1/../../../../pic32mx/lib/fpu64\libc-musl.a(writev.o)
 .xc_stack_usage.hdr
                0x0000000000000000        0xe g:/embedded tools/pic/xc32 compiler/bin/bin/../../lib/gcc/pic32mx/8.3.1/../../../../pic32mx/lib/fpu64\libc-musl.a(writev.o)
 .note.GNU-stack
                0x0000000000000000        0x0 g:/embedded tools/pic/xc32 compiler/bin/bin/../../lib/gcc/pic32mx/8.3.1/../../../../pic32mx/lib/fpu64\libc-musl.a(writev.o)
 .text          0x0000000000000000        0x0 g:/embedded tools/pic/xc32 compiler/bin/bin/../../lib/gcc/pic32mx/8.3.1/../../../../pic32mx/lib/fpu64\libc-musl.a(libc.o)
 .data          0x0000000000000000        0x0 g:/embedded tools/pic/xc32 compiler/bin/bin/../../lib/gcc/pic32mx/8.3.1/../../../../pic32mx/lib/fpu64\libc-musl.a(libc.o)
 .reginfo       0x0000000000000000       0x18 g:/embedded tools/pic/xc32 compiler/bin/bin/../../lib/gcc/pic32mx/8.3.1/../../../../pic32mx/lib/fpu64\libc-musl.a(libc.o)
 .MIPS.abiflags
                0x0000000000000000       0x18 g:/embedded tools/pic/xc32 compiler/bin/bin/../../lib/gcc/pic32mx/8.3.1/../../../../pic32mx/lib/fpu64\libc-musl.a(libc.o)
 .xc_stack_usage.hdr
                0x0000000000000000        0xe g:/embedded tools/pic/xc32 compiler/bin/bin/../../lib/gcc/pic32mx/8.3.1/../../../../pic32mx/lib/fpu64\libc-musl.a(libc.o)
 .note.GNU-stack
                0x0000000000000000        0x0 g:/embedded tools/pic/xc32 compiler/bin/bin/../../lib/gcc/pic32mx/8.3.1/../../../../pic32mx/lib/fpu64\libc-musl.a(libc.o)
 .text          0x0000000000000000        0x0 g:/embedded tools/pic/xc32 compiler/bin/bin/../../lib/gcc/pic32mx/8.3.1/../../../../pic32mx/lib/fpu64\libc-musl.a(__overflow.o)
 .data          0x0000000000000000        0x0 g:/embedded tools/pic/xc32 compiler/bin/bin/../../lib/gcc/pic32mx/8.3.1/../../../../pic32mx/lib/fpu64\libc-musl.a(__overflow.o)
 .bss           0x0000000000000000        0x0 g:/embedded tools/pic/xc32 compiler/bin/bin/../../lib/gcc/pic32mx/8.3.1/../../../../pic32mx/lib/fpu64\libc-musl.a(__overflow.o)
 .reginfo       0x0000000000000000       0x18 g:/embedded tools/pic/xc32 compiler/bin/bin/../../lib/gcc/pic32mx/8.3.1/../../../../pic32mx/lib/fpu64\libc-musl.a(__overflow.o)
 .MIPS.abiflags
                0x0000000000000000       0x18 g:/embedded tools/pic/xc32 compiler/bin/bin/../../lib/gcc/pic32mx/8.3.1/../../../../pic32mx/lib/fpu64\libc-musl.a(__overflow.o)
 .xc_stack_usage
                0x0000000000000000       0x18 g:/embedded tools/pic/xc32 compiler/bin/bin/../../lib/gcc/pic32mx/8.3.1/../../../../pic32mx/lib/fpu64\libc-musl.a(__overflow.o)
 .xc_stack_usage.hdr
                0x0000000000000000        0xe g:/embedded tools/pic/xc32 compiler/bin/bin/../../lib/gcc/pic32mx/8.3.1/../../../../pic32mx/lib/fpu64\libc-musl.a(__overflow.o)
 .note.GNU-stack
                0x0000000000000000        0x0 g:/embedded tools/pic/xc32 compiler/bin/bin/../../lib/gcc/pic32mx/8.3.1/../../../../pic32mx/lib/fpu64\libc-musl.a(__overflow.o)
 .text          0x0000000000000000        0x0 g:/embedded tools/pic/xc32 compiler/bin/bin/../../lib/gcc/pic32mx/8.3.1/../../../../pic32mx/lib/fpu64\libc-musl.a(__fclose.o)
 .data          0x0000000000000000        0x0 g:/embedded tools/pic/xc32 compiler/bin/bin/../../lib/gcc/pic32mx/8.3.1/../../../../pic32mx/lib/fpu64\libc-musl.a(__fclose.o)
 .bss           0x0000000000000000        0x0 g:/embedded tools/pic/xc32 compiler/bin/bin/../../lib/gcc/pic32mx/8.3.1/../../../../pic32mx/lib/fpu64\libc-musl.a(__fclose.o)
 .reginfo       0x0000000000000000       0x18 g:/embedded tools/pic/xc32 compiler/bin/bin/../../lib/gcc/pic32mx/8.3.1/../../../../pic32mx/lib/fpu64\libc-musl.a(__fclose.o)
 .MIPS.abiflags
                0x0000000000000000       0x18 g:/embedded tools/pic/xc32 compiler/bin/bin/../../lib/gcc/pic32mx/8.3.1/../../../../pic32mx/lib/fpu64\libc-musl.a(__fclose.o)
 .xc_stack_usage
                0x0000000000000000       0x16 g:/embedded tools/pic/xc32 compiler/bin/bin/../../lib/gcc/pic32mx/8.3.1/../../../../pic32mx/lib/fpu64\libc-musl.a(__fclose.o)
 .text.__fclose
                0x0000000000000000       0x38 g:/embedded tools/pic/xc32 compiler/bin/bin/../../lib/gcc/pic32mx/8.3.1/../../../../pic32mx/lib/fpu64\libc-musl.a(__fclose.o)
 .xc_stack_usage.hdr
                0x0000000000000000        0xe g:/embedded tools/pic/xc32 compiler/bin/bin/../../lib/gcc/pic32mx/8.3.1/../../../../pic32mx/lib/fpu64\libc-musl.a(__fclose.o)
 .note.GNU-stack
                0x0000000000000000        0x0 g:/embedded tools/pic/xc32 compiler/bin/bin/../../lib/gcc/pic32mx/8.3.1/../../../../pic32mx/lib/fpu64\libc-musl.a(__fclose.o)
 .text          0x0000000000000000        0x0 g:/embedded tools/pic/xc32 compiler/bin/bin/../../lib/gcc/pic32mx/8.3.1/../../../../pic32mx/lib/fpu64\libc-musl.a(__fopen.o)
 .data          0x0000000000000000        0x0 g:/embedded tools/pic/xc32 compiler/bin/bin/../../lib/gcc/pic32mx/8.3.1/../../../../pic32mx/lib/fpu64\libc-musl.a(__fopen.o)
 .bss           0x0000000000000000        0x0 g:/embedded tools/pic/xc32 compiler/bin/bin/../../lib/gcc/pic32mx/8.3.1/../../../../pic32mx/lib/fpu64\libc-musl.a(__fopen.o)
 .reginfo       0x0000000000000000       0x18 g:/embedded tools/pic/xc32 compiler/bin/bin/../../lib/gcc/pic32mx/8.3.1/../../../../pic32mx/lib/fpu64\libc-musl.a(__fopen.o)
 .MIPS.abiflags
                0x0000000000000000       0x18 g:/embedded tools/pic/xc32 compiler/bin/bin/../../lib/gcc/pic32mx/8.3.1/../../../../pic32mx/lib/fpu64\libc-musl.a(__fopen.o)
 .xc_stack_usage
                0x0000000000000000       0x43 g:/embedded tools/pic/xc32 compiler/bin/bin/../../lib/gcc/pic32mx/8.3.1/../../../../pic32mx/lib/fpu64\libc-musl.a(__fopen.o)
 .text.__dummy  0x0000000000000000        0x8 g:/embedded tools/pic/xc32 compiler/bin/bin/../../lib/gcc/pic32mx/8.3.1/../../../../pic32mx/lib/fpu64\libc-musl.a(__fopen.o)
 .text.__fopen_std
                0x0000000000000000       0x60 g:/embedded tools/pic/xc32 compiler/bin/bin/../../lib/gcc/pic32mx/8.3.1/../../../../pic32mx/lib/fpu64\libc-musl.a(__fopen.o)
 .text.__fopen  0x0000000000000000       0x1c g:/embedded tools/pic/xc32 compiler/bin/bin/../../lib/gcc/pic32mx/8.3.1/../../../../pic32mx/lib/fpu64\libc-musl.a(__fopen.o)
 .xc_stack_usage.hdr
                0x0000000000000000        0xe g:/embedded tools/pic/xc32 compiler/bin/bin/../../lib/gcc/pic32mx/8.3.1/../../../../pic32mx/lib/fpu64\libc-musl.a(__fopen.o)
 .note.GNU-stack
                0x0000000000000000        0x0 g:/embedded tools/pic/xc32 compiler/bin/bin/../../lib/gcc/pic32mx/8.3.1/../../../../pic32mx/lib/fpu64\libc-musl.a(__fopen.o)
 .text          0x0000000000000000        0x0 g:/embedded tools/pic/xc32 compiler/bin/bin/../../lib/gcc/pic32mx/8.3.1/../../../../pic32mx/lib/fpu64\libc-musl.a(__fseeko.o)
 .data          0x0000000000000000        0x0 g:/embedded tools/pic/xc32 compiler/bin/bin/../../lib/gcc/pic32mx/8.3.1/../../../../pic32mx/lib/fpu64\libc-musl.a(__fseeko.o)
 .bss           0x0000000000000000        0x0 g:/embedded tools/pic/xc32 compiler/bin/bin/../../lib/gcc/pic32mx/8.3.1/../../../../pic32mx/lib/fpu64\libc-musl.a(__fseeko.o)
 .reginfo       0x0000000000000000       0x18 g:/embedded tools/pic/xc32 compiler/bin/bin/../../lib/gcc/pic32mx/8.3.1/../../../../pic32mx/lib/fpu64\libc-musl.a(__fseeko.o)
 .MIPS.abiflags
                0x0000000000000000       0x18 g:/embedded tools/pic/xc32 compiler/bin/bin/../../lib/gcc/pic32mx/8.3.1/../../../../pic32mx/lib/fpu64\libc-musl.a(__fseeko.o)
 .xc_stack_usage
                0x0000000000000000       0x16 g:/embedded tools/pic/xc32 compiler/bin/bin/../../lib/gcc/pic32mx/8.3.1/../../../../pic32mx/lib/fpu64\libc-musl.a(__fseeko.o)
 .text.__fseeko
                0x0000000000000000       0x20 g:/embedded tools/pic/xc32 compiler/bin/bin/../../lib/gcc/pic32mx/8.3.1/../../../../pic32mx/lib/fpu64\libc-musl.a(__fseeko.o)
 .xc_stack_usage.hdr
                0x0000000000000000        0xe g:/embedded tools/pic/xc32 compiler/bin/bin/../../lib/gcc/pic32mx/8.3.1/../../../../pic32mx/lib/fpu64\libc-musl.a(__fseeko.o)
 .note.GNU-stack
                0x0000000000000000        0x0 g:/embedded tools/pic/xc32 compiler/bin/bin/../../lib/gcc/pic32mx/8.3.1/../../../../pic32mx/lib/fpu64\libc-musl.a(__fseeko.o)
 .text          0x0000000000000000        0x0 g:/embedded tools/pic/xc32 compiler/bin/bin/../../lib/gcc/pic32mx/8.3.1/../../../../pic32mx/lib/fpu64\libc-musl.a(__ftello.o)
 .data          0x0000000000000000        0x0 g:/embedded tools/pic/xc32 compiler/bin/bin/../../lib/gcc/pic32mx/8.3.1/../../../../pic32mx/lib/fpu64\libc-musl.a(__ftello.o)
 .bss           0x0000000000000000        0x0 g:/embedded tools/pic/xc32 compiler/bin/bin/../../lib/gcc/pic32mx/8.3.1/../../../../pic32mx/lib/fpu64\libc-musl.a(__ftello.o)
 .reginfo       0x0000000000000000       0x18 g:/embedded tools/pic/xc32 compiler/bin/bin/../../lib/gcc/pic32mx/8.3.1/../../../../pic32mx/lib/fpu64\libc-musl.a(__ftello.o)
 .MIPS.abiflags
                0x0000000000000000       0x18 g:/embedded tools/pic/xc32 compiler/bin/bin/../../lib/gcc/pic32mx/8.3.1/../../../../pic32mx/lib/fpu64\libc-musl.a(__ftello.o)
 .xc_stack_usage
                0x0000000000000000       0x2f g:/embedded tools/pic/xc32 compiler/bin/bin/../../lib/gcc/pic32mx/8.3.1/../../../../pic32mx/lib/fpu64\libc-musl.a(__ftello.o)
 .text.__dummy  0x0000000000000000       0x2c g:/embedded tools/pic/xc32 compiler/bin/bin/../../lib/gcc/pic32mx/8.3.1/../../../../pic32mx/lib/fpu64\libc-musl.a(__ftello.o)
 .text.__ftello_adj
                0x0000000000000000       0x1c g:/embedded tools/pic/xc32 compiler/bin/bin/../../lib/gcc/pic32mx/8.3.1/../../../../pic32mx/lib/fpu64\libc-musl.a(__ftello.o)
 .xc_stack_usage.hdr
                0x0000000000000000        0xe g:/embedded tools/pic/xc32 compiler/bin/bin/../../lib/gcc/pic32mx/8.3.1/../../../../pic32mx/lib/fpu64\libc-musl.a(__ftello.o)
 .note.GNU-stack
                0x0000000000000000        0x0 g:/embedded tools/pic/xc32 compiler/bin/bin/../../lib/gcc/pic32mx/8.3.1/../../../../pic32mx/lib/fpu64\libc-musl.a(__ftello.o)
 .text          0x0000000000000000        0x0 g:/embedded tools/pic/xc32 compiler/bin/bin/../../lib/gcc/pic32mx/8.3.1/../../../../pic32mx/lib/fpu64\libc-musl.a(__fwrite.o)
 .data          0x0000000000000000        0x0 g:/embedded tools/pic/xc32 compiler/bin/bin/../../lib/gcc/pic32mx/8.3.1/../../../../pic32mx/lib/fpu64\libc-musl.a(__fwrite.o)
 .bss           0x0000000000000000        0x0 g:/embedded tools/pic/xc32 compiler/bin/bin/../../lib/gcc/pic32mx/8.3.1/../../../../pic32mx/lib/fpu64\libc-musl.a(__fwrite.o)
 .reginfo       0x0000000000000000       0x18 g:/embedded tools/pic/xc32 compiler/bin/bin/../../lib/gcc/pic32mx/8.3.1/../../../../pic32mx/lib/fpu64\libc-musl.a(__fwrite.o)
 .MIPS.abiflags
                0x0000000000000000       0x18 g:/embedded tools/pic/xc32 compiler/bin/bin/../../lib/gcc/pic32mx/8.3.1/../../../../pic32mx/lib/fpu64\libc-musl.a(__fwrite.o)
 .xc_stack_usage
                0x0000000000000000       0x36 g:/embedded tools/pic/xc32 compiler/bin/bin/../../lib/gcc/pic32mx/8.3.1/../../../../pic32mx/lib/fpu64\libc-musl.a(__fwrite.o)
 .xc_stack_usage.hdr
                0x0000000000000000        0xe g:/embedded tools/pic/xc32 compiler/bin/bin/../../lib/gcc/pic32mx/8.3.1/../../../../pic32mx/lib/fpu64\libc-musl.a(__fwrite.o)
 .note.GNU-stack
                0x0000000000000000        0x0 g:/embedded tools/pic/xc32 compiler/bin/bin/../../lib/gcc/pic32mx/8.3.1/../../../../pic32mx/lib/fpu64\libc-musl.a(__fwrite.o)
 .data          0x0000000000000000        0x0 g:/embedded tools/pic/xc32 compiler/bin/bin/../../lib/gcc/pic32mx/8.3.1/fpu64\libgcc.a(_lshrdi3.o)
 .bss           0x0000000000000000        0x0 g:/embedded tools/pic/xc32 compiler/bin/bin/../../lib/gcc/pic32mx/8.3.1/fpu64\libgcc.a(_lshrdi3.o)
 .reginfo       0x0000000000000000       0x18 g:/embedded tools/pic/xc32 compiler/bin/bin/../../lib/gcc/pic32mx/8.3.1/fpu64\libgcc.a(_lshrdi3.o)
 .MIPS.abiflags
                0x0000000000000000       0x18 g:/embedded tools/pic/xc32 compiler/bin/bin/../../lib/gcc/pic32mx/8.3.1/fpu64\libgcc.a(_lshrdi3.o)
 .xc_stack_usage
                0x0000000000000000       0x17 g:/embedded tools/pic/xc32 compiler/bin/bin/../../lib/gcc/pic32mx/8.3.1/fpu64\libgcc.a(_lshrdi3.o)
 .xc_stack_usage.hdr
                0x0000000000000000        0xe g:/embedded tools/pic/xc32 compiler/bin/bin/../../lib/gcc/pic32mx/8.3.1/fpu64\libgcc.a(_lshrdi3.o)
 .data          0x0000000000000000        0x0 g:/embedded tools/pic/xc32 compiler/bin/bin/../../lib/gcc/pic32mx/8.3.1/fpu64\libgcc.a(_ashldi3.o)
 .bss           0x0000000000000000        0x0 g:/embedded tools/pic/xc32 compiler/bin/bin/../../lib/gcc/pic32mx/8.3.1/fpu64\libgcc.a(_ashldi3.o)
 .reginfo       0x0000000000000000       0x18 g:/embedded tools/pic/xc32 compiler/bin/bin/../../lib/gcc/pic32mx/8.3.1/fpu64\libgcc.a(_ashldi3.o)
 .MIPS.abiflags
                0x0000000000000000       0x18 g:/embedded tools/pic/xc32 compiler/bin/bin/../../lib/gcc/pic32mx/8.3.1/fpu64\libgcc.a(_ashldi3.o)
 .xc_stack_usage
                0x0000000000000000       0x17 g:/embedded tools/pic/xc32 compiler/bin/bin/../../lib/gcc/pic32mx/8.3.1/fpu64\libgcc.a(_ashldi3.o)
 .xc_stack_usage.hdr
                0x0000000000000000        0xe g:/embedded tools/pic/xc32 compiler/bin/bin/../../lib/gcc/pic32mx/8.3.1/fpu64\libgcc.a(_ashldi3.o)
 .text          0x0000000000000000        0x0 g:/embedded tools/pic/xc32 compiler/bin/bin/../../lib/gcc/pic32mx/8.3.1/../../../../pic32mx/lib/fpu64\libpic32.a(sbrk.o)
 .data          0x0000000000000000        0x0 g:/embedded tools/pic/xc32 compiler/bin/bin/../../lib/gcc/pic32mx/8.3.1/../../../../pic32mx/lib/fpu64\libpic32.a(sbrk.o)
 .reginfo       0x0000000000000000       0x18 g:/embedded tools/pic/xc32 compiler/bin/bin/../../lib/gcc/pic32mx/8.3.1/../../../../pic32mx/lib/fpu64\libpic32.a(sbrk.o)
 .MIPS.abiflags
                0x0000000000000000       0x18 g:/embedded tools/pic/xc32 compiler/bin/bin/../../lib/gcc/pic32mx/8.3.1/../../../../pic32mx/lib/fpu64\libpic32.a(sbrk.o)
 .xc_stack_usage
                0x0000000000000000       0x77 g:/embedded tools/pic/xc32 compiler/bin/bin/../../lib/gcc/pic32mx/8.3.1/../../../../pic32mx/lib/fpu64\libpic32.a(sbrk.o)
 .text.getpagesize
                0x0000000000000000        0x8 g:/embedded tools/pic/xc32 compiler/bin/bin/../../lib/gcc/pic32mx/8.3.1/../../../../pic32mx/lib/fpu64\libpic32.a(sbrk.o)
 .text.sbrk     0x0000000000000000       0x4c g:/embedded tools/pic/xc32 compiler/bin/bin/../../lib/gcc/pic32mx/8.3.1/../../../../pic32mx/lib/fpu64\libpic32.a(sbrk.o)
 .xc_stack_usage.hdr
                0x0000000000000000        0xe g:/embedded tools/pic/xc32 compiler/bin/bin/../../lib/gcc/pic32mx/8.3.1/../../../../pic32mx/lib/fpu64\libpic32.a(sbrk.o)
 .text          0x0000000000000000        0x0 g:/embedded tools/pic/xc32 compiler/bin/bin/../../lib/gcc/pic32mx/8.3.1/../../../../pic32mx/lib/fpu64\libpic32.a(lseek.o)
 .data          0x0000000000000000        0x0 g:/embedded tools/pic/xc32 compiler/bin/bin/../../lib/gcc/pic32mx/8.3.1/../../../../pic32mx/lib/fpu64\libpic32.a(lseek.o)
 .bss           0x0000000000000000        0x0 g:/embedded tools/pic/xc32 compiler/bin/bin/../../lib/gcc/pic32mx/8.3.1/../../../../pic32mx/lib/fpu64\libpic32.a(lseek.o)
 .reginfo       0x0000000000000000       0x18 g:/embedded tools/pic/xc32 compiler/bin/bin/../../lib/gcc/pic32mx/8.3.1/../../../../pic32mx/lib/fpu64\libpic32.a(lseek.o)
 .MIPS.abiflags
                0x0000000000000000       0x18 g:/embedded tools/pic/xc32 compiler/bin/bin/../../lib/gcc/pic32mx/8.3.1/../../../../pic32mx/lib/fpu64\libpic32.a(lseek.o)
 .xc_stack_usage
                0x0000000000000000       0x13 g:/embedded tools/pic/xc32 compiler/bin/bin/../../lib/gcc/pic32mx/8.3.1/../../../../pic32mx/lib/fpu64\libpic32.a(lseek.o)
 .xc_stack_usage.hdr
                0x0000000000000000        0xe g:/embedded tools/pic/xc32 compiler/bin/bin/../../lib/gcc/pic32mx/8.3.1/../../../../pic32mx/lib/fpu64\libpic32.a(lseek.o)
 .text          0x0000000000000000        0x0 g:/embedded tools/pic/xc32 compiler/bin/bin/../../lib/gcc/pic32mx/8.3.1/../../../../pic32mx/lib/fpu64\libpic32.a(close.o)
 .data          0x0000000000000000        0x0 g:/embedded tools/pic/xc32 compiler/bin/bin/../../lib/gcc/pic32mx/8.3.1/../../../../pic32mx/lib/fpu64\libpic32.a(close.o)
 .bss           0x0000000000000000        0x0 g:/embedded tools/pic/xc32 compiler/bin/bin/../../lib/gcc/pic32mx/8.3.1/../../../../pic32mx/lib/fpu64\libpic32.a(close.o)
 .reginfo       0x0000000000000000       0x18 g:/embedded tools/pic/xc32 compiler/bin/bin/../../lib/gcc/pic32mx/8.3.1/../../../../pic32mx/lib/fpu64\libpic32.a(close.o)
 .MIPS.abiflags
                0x0000000000000000       0x18 g:/embedded tools/pic/xc32 compiler/bin/bin/../../lib/gcc/pic32mx/8.3.1/../../../../pic32mx/lib/fpu64\libpic32.a(close.o)
 .xc_stack_usage
                0x0000000000000000       0x13 g:/embedded tools/pic/xc32 compiler/bin/bin/../../lib/gcc/pic32mx/8.3.1/../../../../pic32mx/lib/fpu64\libpic32.a(close.o)
 .xc_stack_usage.hdr
                0x0000000000000000        0xe g:/embedded tools/pic/xc32 compiler/bin/bin/../../lib/gcc/pic32mx/8.3.1/../../../../pic32mx/lib/fpu64\libpic32.a(close.o)
 .text          0x0000000000000000        0x0 g:/embedded tools/pic/xc32 compiler/bin/bin/../../lib/gcc/pic32mx/8.3.1/../../../../pic32mx/lib/fpu64\libpic32.a(errno.o)
 .data          0x0000000000000000        0x0 g:/embedded tools/pic/xc32 compiler/bin/bin/../../lib/gcc/pic32mx/8.3.1/../../../../pic32mx/lib/fpu64\libpic32.a(errno.o)
 .bss           0x0000000000000000        0x0 g:/embedded tools/pic/xc32 compiler/bin/bin/../../lib/gcc/pic32mx/8.3.1/../../../../pic32mx/lib/fpu64\libpic32.a(errno.o)
 .reginfo       0x0000000000000000       0x18 g:/embedded tools/pic/xc32 compiler/bin/bin/../../lib/gcc/pic32mx/8.3.1/../../../../pic32mx/lib/fpu64\libpic32.a(errno.o)
 .MIPS.abiflags
                0x0000000000000000       0x18 g:/embedded tools/pic/xc32 compiler/bin/bin/../../lib/gcc/pic32mx/8.3.1/../../../../pic32mx/lib/fpu64\libpic32.a(errno.o)
 .xc_stack_usage.hdr
                0x0000000000000000        0xe g:/embedded tools/pic/xc32 compiler/bin/bin/../../lib/gcc/pic32mx/8.3.1/../../../../pic32mx/lib/fpu64\libpic32.a(errno.o)
 .data          0x0000000000000000        0x0 g:/embedded tools/pic/xc32 compiler/bin/bin/../../lib/gcc/pic32mx/8.3.1/../../../../pic32mx/lib/fpu64\libpic32.a(pic32_data_init_clear.o)
 .bss           0x0000000000000000        0x0 g:/embedded tools/pic/xc32 compiler/bin/bin/../../lib/gcc/pic32mx/8.3.1/../../../../pic32mx/lib/fpu64\libpic32.a(pic32_data_init_clear.o)
 .reginfo       0x0000000000000000       0x18 g:/embedded tools/pic/xc32 compiler/bin/bin/../../lib/gcc/pic32mx/8.3.1/../../../../pic32mx/lib/fpu64\libpic32.a(pic32_data_init_clear.o)
 .MIPS.abiflags
                0x0000000000000000       0x18 g:/embedded tools/pic/xc32 compiler/bin/bin/../../lib/gcc/pic32mx/8.3.1/../../../../pic32mx/lib/fpu64\libpic32.a(pic32_data_init_clear.o)
 .xc_stack_usage.hdr
                0x0000000000000000        0xe g:/embedded tools/pic/xc32 compiler/bin/bin/../../lib/gcc/pic32mx/8.3.1/../../../../pic32mx/lib/fpu64\libpic32.a(pic32_data_init_clear.o)
 .xc_stack_usage
                0x0000000000000000       0x1b g:/embedded tools/pic/xc32 compiler/bin/bin/../../lib/gcc/pic32mx/8.3.1/../../../../pic32mx/lib/fpu64\libpic32.a(pic32_data_init_clear.o)
 .data          0x0000000000000000        0x0 g:/embedded tools/pic/xc32 compiler/bin/bin/../../lib/gcc/pic32mx/8.3.1/../../../../pic32mx/lib/fpu64\libpic32.a(pic32_data_init_copy.o)
 .bss           0x0000000000000000        0x0 g:/embedded tools/pic/xc32 compiler/bin/bin/../../lib/gcc/pic32mx/8.3.1/../../../../pic32mx/lib/fpu64\libpic32.a(pic32_data_init_copy.o)
 .reginfo       0x0000000000000000       0x18 g:/embedded tools/pic/xc32 compiler/bin/bin/../../lib/gcc/pic32mx/8.3.1/../../../../pic32mx/lib/fpu64\libpic32.a(pic32_data_init_copy.o)
 .MIPS.abiflags
                0x0000000000000000       0x18 g:/embedded tools/pic/xc32 compiler/bin/bin/../../lib/gcc/pic32mx/8.3.1/../../../../pic32mx/lib/fpu64\libpic32.a(pic32_data_init_copy.o)
 .xc_stack_usage.hdr
                0x0000000000000000        0xe g:/embedded tools/pic/xc32 compiler/bin/bin/../../lib/gcc/pic32mx/8.3.1/../../../../pic32mx/lib/fpu64\libpic32.a(pic32_data_init_copy.o)
 .xc_stack_usage
                0x0000000000000000       0x1a g:/embedded tools/pic/xc32 compiler/bin/bin/../../lib/gcc/pic32mx/8.3.1/../../../../pic32mx/lib/fpu64\libpic32.a(pic32_data_init_copy.o)

Memory Configuration

Name             Origin             Length             Attributes
kseg0_program_mem 0x000000009d000000 0x0000000000080000 xr
kseg0_boot_mem   0x000000009fc04490 0x0000000000000000
debug_exec_mem   0x000000009fc04490 0x0000000000000b70
kseg1_boot_mem   0x00000000bfc00000 0x0000000000000480
kseg1_boot_mem_4B0 0x00000000bfc004b0 0x0000000000003a80
config_BFC03F40  0x00000000bfc03f40 0x0000000000000004
config_BFC03F44  0x00000000bfc03f44 0x0000000000000004
config_BFC03F48  0x00000000bfc03f48 0x0000000000000004
config_BFC03F4C  0x00000000bfc03f4c 0x0000000000000004
config_BFC03F5C  0x00000000bfc03f5c 0x0000000000000004
config_BFC03F6C  0x00000000bfc03f6c 0x0000000000000004
config_BFC03F70  0x00000000bfc03f70 0x0000000000000004
config_BFC03FC0  0x00000000bfc03fc0 0x0000000000000004
config_BFC03FC4  0x00000000bfc03fc4 0x0000000000000004
config_BFC03FC8  0x00000000bfc03fc8 0x0000000000000004
config_BFC03FCC  0x00000000bfc03fcc 0x0000000000000004
config_BFC03FDC  0x00000000bfc03fdc 0x0000000000000004
config_BFC03FEC  0x00000000bfc03fec 0x0000000000000004
config_BFC03FF0  0x00000000bfc03ff0 0x0000000000000004
lowerbootaliaslastpage 0x00000000bfc04000 0x0000000000001000
boot1            0x00000000bfc40000 0x0000000000003f30
config_BFC43F40  0x00000000bfc43f40 0x0000000000000004
config_BFC43F44  0x00000000bfc43f44 0x0000000000000004
config_BFC43F48  0x00000000bfc43f48 0x0000000000000004
config_BFC43F4C  0x00000000bfc43f4c 0x0000000000000004
config_BFC43F5C  0x00000000bfc43f5c 0x0000000000000004
config_BFC43F6C  0x00000000bfc43f6c 0x0000000000000004
config_BFC43F70  0x00000000bfc43f70 0x0000000000000004
config_BFC43FC0  0x00000000bfc43fc0 0x0000000000000004
config_BFC43FC4  0x00000000bfc43fc4 0x0000000000000004
config_BFC43FC8  0x00000000bfc43fc8 0x0000000000000004
config_BFC43FCC  0x00000000bfc43fcc 0x0000000000000004
config_BFC43FDC  0x00000000bfc43fdc 0x0000000000000004
config_BFC43FEC  0x00000000bfc43fec 0x0000000000000004
config_BFC43FF0  0x00000000bfc43ff0 0x0000000000000004
boot1lastpage    0x00000000bfc44000 0x0000000000001000
config_BFC45000  0x00000000bfc45000 0x0000000000000004
config_BFC45004  0x00000000bfc45004 0x0000000000000004
config_BFC45008  0x00000000bfc45008 0x0000000000000004
config_BFC4500C  0x00000000bfc4500c 0x0000000000000004
config_BFC45010  0x00000000bfc45010 0x0000000000000004
config_BFC45014  0x00000000bfc45014 0x0000000000000004
config_BFC45018  0x00000000bfc45018 0x0000000000000004
config_BFC45020  0x00000000bfc45020 0x0000000000000004
config_BFC45024  0x00000000bfc45024 0x0000000000000004
config_BFC45028  0x00000000bfc45028 0x0000000000000004
config_BFC4502C  0x00000000bfc4502c 0x0000000000000004
kseg0_data_mem   0x0000000080000000 0x0000000000010000 w !x
sfrs             0x00000000bf800000 0x0000000000100000
configsfrs_BFC03F30 0x00000000bfc03f30 0x000000000000001c
configsfrs_BFC03FB0 0x00000000bfc03fb0 0x000000000000001c
configsfrs_BFC43F30 0x00000000bfc43f30 0x000000000000001c
configsfrs_BFC43FB0 0x00000000bfc43fb0 0x000000000000001c
configsfrs_BFC45000 0x00000000bfc45000 0x000000000000001c
configsfrs_BFC45020 0x00000000bfc45020 0x0000000000000010
*default*        0x0000000000000000 0xffffffffffffffff

Linker script and memory map

LOAD g:/embedded tools/pic/xc32 compiler/bin/bin/../../lib/gcc/pic32mx/8.3.1/../../../../pic32mx/lib/fpu64\debug-exception-return.o
LOAD build/default/production/_ext/60165520/plib_clk.o
LOAD build/default/production/_ext/1865200349/plib_evic.o
LOAD build/default/production/_ext/1865254177/plib_gpio.o
LOAD build/default/production/_ext/1865657120/plib_uart1.o
LOAD build/default/production/_ext/163028504/xc32_monitor.o
LOAD build/default/production/_ext/1171490990/interrupts.o
LOAD build/default/production/_ext/1171490990/initialization.o
LOAD build/default/production/_ext/1171490990/exceptions.o
LOAD build/default/production/_ext/1360937237/main.o
LOAD build/default/production/_ext/1249264884/plib_coretimer.o
LOAD build/default/production/_ext/60181895/plib_tmr3.o
LOAD build/default/production/_ext/1865638794/plib_tmr1.o
                0x0000000000000001                __MPLAB_BUILD = 0x1
                0x0000000000000400                PROVIDE (_min_stack_size = 0x400)
START GROUP
LOAD vector_offset_init.o
END GROUP
                0x0000000000000001                PROVIDE (_vector_spacing = 0x1)
                0x000000009d000000                PROVIDE (_ebase_address = 0x9d000000)
                0x00000000bfc00000                _RESET_ADDR = 0xbfc00000
                0x00000000bfc00380                _BEV_EXCPT_ADDR = 0xbfc00380
                0x00000000bfc00480                _DBG_EXCPT_ADDR = 0xbfc00480
                0x000000009d000000                _SIMPLE_TLB_REFILL_EXCPT_ADDR = (_ebase_address + 0x0)
                0x000000009d000180                _GEN_EXCPT_ADDR = (_ebase_address + 0x180)

.config_BFC03F40
 *(.config_BFC03F40)

.config_BFC03F44
 *(.config_BFC03F44)

.config_BFC03F48
 *(.config_BFC03F48)

.config_BFC03F4C
 *(.config_BFC03F4C)

.config_BFC03F5C
 *(.config_BFC03F5C)

.config_BFC03F6C
 *(.config_BFC03F6C)

.config_BFC03F70
 *(.config_BFC03F70)

.config_BFC03FC0
 *(.config_BFC03FC0)

.config_BFC03FC4
 *(.config_BFC03FC4)

.config_BFC03FC8
 *(.config_BFC03FC8)

.config_BFC03FCC
 *(.config_BFC03FCC)

.config_BFC03FDC
 *(.config_BFC03FDC)

.config_BFC03FEC
 *(.config_BFC03FEC)

.config_BFC03FF0
 *(.config_BFC03FF0)

.config_BFC43F40
 *(.config_BFC43F40)

.config_BFC43F44
 *(.config_BFC43F44)

.config_BFC43F48
 *(.config_BFC43F48)

.config_BFC43F4C
 *(.config_BFC43F4C)

.config_BFC43F5C
 *(.config_BFC43F5C)

.config_BFC43F6C
 *(.config_BFC43F6C)

.config_BFC43F70
 *(.config_BFC43F70)

.config_BFC43FC0
 *(.config_BFC43FC0)

.config_BFC43FC4
 *(.config_BFC43FC4)

.config_BFC43FC8
 *(.config_BFC43FC8)

.config_BFC43FCC
 *(.config_BFC43FCC)

.config_BFC43FDC
 *(.config_BFC43FDC)

.config_BFC43FEC
 *(.config_BFC43FEC)

.config_BFC43FF0
 *(.config_BFC43FF0)

.config_BFC45000
 *(.config_BFC45000)

.config_BFC45004
 *(.config_BFC45004)

.config_BFC45008
 *(.config_BFC45008)

.config_BFC4500C
 *(.config_BFC4500C)

.config_BFC45010
 *(.config_BFC45010)

.config_BFC45014
 *(.config_BFC45014)

.config_BFC45018
 *(.config_BFC45018)

.config_BFC45020
 *(.config_BFC45020)

.config_BFC45024
 *(.config_BFC45024)

.config_BFC45028
 *(.config_BFC45028)

.config_BFC4502C
 *(.config_BFC4502C)

.reset          0x00000000bfc00000      0x194
 *(.reset)
 .reset         0x00000000bfc00000       0x18 C:\Users\HP\AppData\Local\Temp\ccSwWAzT.o
                0x00000000bfc00000                _reset
 *(.reset.startup)
 .reset.startup
                0x00000000bfc00018      0x17c C:\Users\HP\AppData\Local\Temp\ccSwWAzT.o
                0x00000000bfc00018                _startup

.bev_excpt      0x00000000bfc00380       0x10
 *(.bev_handler)
 .bev_handler   0x00000000bfc00380       0x10 C:\Users\HP\AppData\Local\Temp\ccSwWAzT.o

.app_excpt      0x000000009d000180       0x10
 *(.gen_handler)
 .gen_handler   0x000000009d000180       0x10 C:\Users\HP\AppData\Local\Temp\ccSwWAzT.o

.vectors        0x000000009d000200       0x60
                0x000000009d000200                . = ALIGN (0x4)
                0x0000000000000218                __vector_offset_0 = DEFINED (__vector_dispatch_0)?(. - _ebase_address):__vector_offset_default
 *(.vector_0)
                0x000000009d000200                . = ALIGN (0x4)
                0x0000000000000218                __vector_offset_1 = DEFINED (__vector_dispatch_1)?(. - _ebase_address):__vector_offset_default
 *(.vector_1)
                0x000000009d000200                . = ALIGN (0x4)
                0x0000000000000218                __vector_offset_2 = DEFINED (__vector_dispatch_2)?(. - _ebase_address):__vector_offset_default
 *(.vector_2)
                0x000000009d000200                . = ALIGN (0x4)
                0x0000000000000218                __vector_offset_3 = DEFINED (__vector_dispatch_3)?(. - _ebase_address):__vector_offset_default
 *(.vector_3)
                0x000000009d000200                . = ALIGN (0x4)
                0x0000000000000200                __vector_offset_4 = DEFINED (__vector_dispatch_4)?(. - _ebase_address):__vector_offset_default
 *(.vector_4)
 .vector_4      0x000000009d000200        0x8 build/default/production/_ext/1171490990/interrupts.o
                0x000000009d000200                __vector_dispatch_4
                0x000000009d000208                . = ALIGN (0x4)
                0x0000000000000218                __vector_offset_5 = DEFINED (__vector_dispatch_5)?(. - _ebase_address):__vector_offset_default
 *(.vector_5)
                0x000000009d000208                . = ALIGN (0x4)
                0x0000000000000218                __vector_offset_6 = DEFINED (__vector_dispatch_6)?(. - _ebase_address):__vector_offset_default
 *(.vector_6)
                0x000000009d000208                . = ALIGN (0x4)
                0x0000000000000218                __vector_offset_7 = DEFINED (__vector_dispatch_7)?(. - _ebase_address):__vector_offset_default
 *(.vector_7)
                0x000000009d000208                . = ALIGN (0x4)
                0x0000000000000218                __vector_offset_8 = DEFINED (__vector_dispatch_8)?(. - _ebase_address):__vector_offset_default
 *(.vector_8)
                0x000000009d000208                . = ALIGN (0x4)
                0x0000000000000218                __vector_offset_9 = DEFINED (__vector_dispatch_9)?(. - _ebase_address):__vector_offset_default
 *(.vector_9)
                0x000000009d000208                . = ALIGN (0x4)
                0x0000000000000218                __vector_offset_10 = DEFINED (__vector_dispatch_10)?(. - _ebase_address):__vector_offset_default
 *(.vector_10)
                0x000000009d000208                . = ALIGN (0x4)
                0x0000000000000218                __vector_offset_11 = DEFINED (__vector_dispatch_11)?(. - _ebase_address):__vector_offset_default
 *(.vector_11)
                0x000000009d000208                . = ALIGN (0x4)
                0x0000000000000218                __vector_offset_12 = DEFINED (__vector_dispatch_12)?(. - _ebase_address):__vector_offset_default
 *(.vector_12)
                0x000000009d000208                . = ALIGN (0x4)
                0x0000000000000218                __vector_offset_13 = DEFINED (__vector_dispatch_13)?(. - _ebase_address):__vector_offset_default
 *(.vector_13)
                0x000000009d000208                . = ALIGN (0x4)
                0x0000000000000208                __vector_offset_14 = DEFINED (__vector_dispatch_14)?(. - _ebase_address):__vector_offset_default
 *(.vector_14)
 .vector_14     0x000000009d000208        0x8 build/default/production/_ext/1171490990/interrupts.o
                0x000000009d000208                __vector_dispatch_14
                0x000000009d000210                . = ALIGN (0x4)
                0x0000000000000218                __vector_offset_15 = DEFINED (__vector_dispatch_15)?(. - _ebase_address):__vector_offset_default
 *(.vector_15)
                0x000000009d000210                . = ALIGN (0x4)
                0x0000000000000218                __vector_offset_16 = DEFINED (__vector_dispatch_16)?(. - _ebase_address):__vector_offset_default
 *(.vector_16)
                0x000000009d000210                . = ALIGN (0x4)
                0x0000000000000218                __vector_offset_17 = DEFINED (__vector_dispatch_17)?(. - _ebase_address):__vector_offset_default
 *(.vector_17)
                0x000000009d000210                . = ALIGN (0x4)
                0x0000000000000218                __vector_offset_18 = DEFINED (__vector_dispatch_18)?(. - _ebase_address):__vector_offset_default
 *(.vector_18)
                0x000000009d000210                . = ALIGN (0x4)
                0x0000000000000218                __vector_offset_19 = DEFINED (__vector_dispatch_19)?(. - _ebase_address):__vector_offset_default
 *(.vector_19)
                0x000000009d000210                . = ALIGN (0x4)
                0x0000000000000218                __vector_offset_20 = DEFINED (__vector_dispatch_20)?(. - _ebase_address):__vector_offset_default
 *(.vector_20)
                0x000000009d000210                . = ALIGN (0x4)
                0x0000000000000218                __vector_offset_21 = DEFINED (__vector_dispatch_21)?(. - _ebase_address):__vector_offset_default
 *(.vector_21)
                0x000000009d000210                . = ALIGN (0x4)
                0x0000000000000218                __vector_offset_22 = DEFINED (__vector_dispatch_22)?(. - _ebase_address):__vector_offset_default
 *(.vector_22)
                0x000000009d000210                . = ALIGN (0x4)
                0x0000000000000218                __vector_offset_23 = DEFINED (__vector_dispatch_23)?(. - _ebase_address):__vector_offset_default
 *(.vector_23)
                0x000000009d000210                . = ALIGN (0x4)
                0x0000000000000218                __vector_offset_24 = DEFINED (__vector_dispatch_24)?(. - _ebase_address):__vector_offset_default
 *(.vector_24)
                0x000000009d000210                . = ALIGN (0x4)
                0x0000000000000218                __vector_offset_25 = DEFINED (__vector_dispatch_25)?(. - _ebase_address):__vector_offset_default
 *(.vector_25)
                0x000000009d000210                . = ALIGN (0x4)
                0x0000000000000218                __vector_offset_26 = DEFINED (__vector_dispatch_26)?(. - _ebase_address):__vector_offset_default
 *(.vector_26)
                0x000000009d000210                . = ALIGN (0x4)
                0x0000000000000218                __vector_offset_27 = DEFINED (__vector_dispatch_27)?(. - _ebase_address):__vector_offset_default
 *(.vector_27)
                0x000000009d000210                . = ALIGN (0x4)
                0x0000000000000218                __vector_offset_28 = DEFINED (__vector_dispatch_28)?(. - _ebase_address):__vector_offset_default
 *(.vector_28)
                0x000000009d000210                . = ALIGN (0x4)
                0x0000000000000218                __vector_offset_29 = DEFINED (__vector_dispatch_29)?(. - _ebase_address):__vector_offset_default
 *(.vector_29)
                0x000000009d000210                . = ALIGN (0x4)
                0x0000000000000218                __vector_offset_30 = DEFINED (__vector_dispatch_30)?(. - _ebase_address):__vector_offset_default
 *(.vector_30)
                0x000000009d000210                . = ALIGN (0x4)
                0x0000000000000218                __vector_offset_31 = DEFINED (__vector_dispatch_31)?(. - _ebase_address):__vector_offset_default
 *(.vector_31)
                0x000000009d000210                . = ALIGN (0x4)
                0x0000000000000218                __vector_offset_32 = DEFINED (__vector_dispatch_32)?(. - _ebase_address):__vector_offset_default
 *(.vector_32)
                0x000000009d000210                . = ALIGN (0x4)
                0x0000000000000218                __vector_offset_33 = DEFINED (__vector_dispatch_33)?(. - _ebase_address):__vector_offset_default
 *(.vector_33)
                0x000000009d000210                . = ALIGN (0x4)
                0x0000000000000218                __vector_offset_34 = DEFINED (__vector_dispatch_34)?(. - _ebase_address):__vector_offset_default
 *(.vector_34)
                0x000000009d000210                . = ALIGN (0x4)
                0x0000000000000218                __vector_offset_35 = DEFINED (__vector_dispatch_35)?(. - _ebase_address):__vector_offset_default
 *(.vector_35)
                0x000000009d000210                . = ALIGN (0x4)
                0x0000000000000218                __vector_offset_36 = DEFINED (__vector_dispatch_36)?(. - _ebase_address):__vector_offset_default
 *(.vector_36)
                0x000000009d000210                . = ALIGN (0x4)
                0x0000000000000218                __vector_offset_37 = DEFINED (__vector_dispatch_37)?(. - _ebase_address):__vector_offset_default
 *(.vector_37)
                0x000000009d000210                . = ALIGN (0x4)
                0x0000000000000218                __vector_offset_38 = DEFINED (__vector_dispatch_38)?(. - _ebase_address):__vector_offset_default
 *(.vector_38)
                0x000000009d000210                . = ALIGN (0x4)
                0x0000000000000218                __vector_offset_39 = DEFINED (__vector_dispatch_39)?(. - _ebase_address):__vector_offset_default
 *(.vector_39)
                0x000000009d000210                . = ALIGN (0x4)
                0x0000000000000218                __vector_offset_40 = DEFINED (__vector_dispatch_40)?(. - _ebase_address):__vector_offset_default
 *(.vector_40)
                0x000000009d000210                . = ALIGN (0x4)
                0x0000000000000218                __vector_offset_41 = DEFINED (__vector_dispatch_41)?(. - _ebase_address):__vector_offset_default
 *(.vector_41)
                0x000000009d000210                . = ALIGN (0x4)
                0x0000000000000218                __vector_offset_42 = DEFINED (__vector_dispatch_42)?(. - _ebase_address):__vector_offset_default
 *(.vector_42)
                0x000000009d000210                . = ALIGN (0x4)
                0x0000000000000218                __vector_offset_43 = DEFINED (__vector_dispatch_43)?(. - _ebase_address):__vector_offset_default
 *(.vector_43)
                0x000000009d000210                . = ALIGN (0x4)
                0x0000000000000210                __vector_offset_44 = DEFINED (__vector_dispatch_44)?(. - _ebase_address):__vector_offset_default
 *(.vector_44)
 .vector_44     0x000000009d000210        0x8 build/default/production/_ext/1171490990/interrupts.o
                0x000000009d000210                __vector_dispatch_44
                0x000000009d000218                . = ALIGN (0x4)
                0x0000000000000218                __vector_offset_45 = DEFINED (__vector_dispatch_45)?(. - _ebase_address):__vector_offset_default
 *(.vector_45)
                0x000000009d000218                . = ALIGN (0x4)
                0x0000000000000218                __vector_offset_46 = DEFINED (__vector_dispatch_46)?(. - _ebase_address):__vector_offset_default
 *(.vector_46)
                0x000000009d000218                . = ALIGN (0x4)
                0x0000000000000218                __vector_offset_47 = DEFINED (__vector_dispatch_47)?(. - _ebase_address):__vector_offset_default
 *(.vector_47)
                0x000000009d000218                . = ALIGN (0x4)
                0x0000000000000218                __vector_offset_48 = DEFINED (__vector_dispatch_48)?(. - _ebase_address):__vector_offset_default
 *(.vector_48)
                0x000000009d000218                . = ALIGN (0x4)
                0x0000000000000218                __vector_offset_49 = DEFINED (__vector_dispatch_49)?(. - _ebase_address):__vector_offset_default
 *(.vector_49)
                0x000000009d000218                . = ALIGN (0x4)
                0x0000000000000218                __vector_offset_50 = DEFINED (__vector_dispatch_50)?(. - _ebase_address):__vector_offset_default
 *(.vector_50)
                0x000000009d000218                . = ALIGN (0x4)
                0x0000000000000218                __vector_offset_51 = DEFINED (__vector_dispatch_51)?(. - _ebase_address):__vector_offset_default
 *(.vector_51)
                0x000000009d000218                . = ALIGN (0x4)
                0x0000000000000218                __vector_offset_52 = DEFINED (__vector_dispatch_52)?(. - _ebase_address):__vector_offset_default
 *(.vector_52)
                0x000000009d000218                . = ALIGN (0x4)
                0x0000000000000218                __vector_offset_53 = DEFINED (__vector_dispatch_53)?(. - _ebase_address):__vector_offset_default
 *(.vector_53)
                0x000000009d000218                . = ALIGN (0x4)
                0x0000000000000218                __vector_offset_54 = DEFINED (__vector_dispatch_54)?(. - _ebase_address):__vector_offset_default
 *(.vector_54)
                0x000000009d000218                . = ALIGN (0x4)
                0x0000000000000218                __vector_offset_55 = DEFINED (__vector_dispatch_55)?(. - _ebase_address):__vector_offset_default
 *(.vector_55)
                0x000000009d000218                . = ALIGN (0x4)
                0x0000000000000218                __vector_offset_56 = DEFINED (__vector_dispatch_56)?(. - _ebase_address):__vector_offset_default
 *(.vector_56)
                0x000000009d000218                . = ALIGN (0x4)
                0x0000000000000218                __vector_offset_57 = DEFINED (__vector_dispatch_57)?(. - _ebase_address):__vector_offset_default
 *(.vector_57)
                0x000000009d000218                . = ALIGN (0x4)
                0x0000000000000218                __vector_offset_58 = DEFINED (__vector_dispatch_58)?(. - _ebase_address):__vector_offset_default
 *(.vector_58)
                0x000000009d000218                . = ALIGN (0x4)
                0x0000000000000218                __vector_offset_59 = DEFINED (__vector_dispatch_59)?(. - _ebase_address):__vector_offset_default
 *(.vector_59)
                0x000000009d000218                . = ALIGN (0x4)
                0x0000000000000218                __vector_offset_60 = DEFINED (__vector_dispatch_60)?(. - _ebase_address):__vector_offset_default
 *(.vector_60)
                0x000000009d000218                . = ALIGN (0x4)
                0x0000000000000218                __vector_offset_61 = DEFINED (__vector_dispatch_61)?(. - _ebase_address):__vector_offset_default
 *(.vector_61)
                0x000000009d000218                . = ALIGN (0x4)
                0x0000000000000218                __vector_offset_62 = DEFINED (__vector_dispatch_62)?(. - _ebase_address):__vector_offset_default
 *(.vector_62)
                0x000000009d000218                . = ALIGN (0x4)
                0x0000000000000218                __vector_offset_63 = DEFINED (__vector_dispatch_63)?(. - _ebase_address):__vector_offset_default
 *(.vector_63)
                0x000000009d000218                . = ALIGN (0x4)
                0x0000000000000218                __vector_offset_64 = DEFINED (__vector_dispatch_64)?(. - _ebase_address):__vector_offset_default
 *(.vector_64)
                0x000000009d000218                . = ALIGN (0x4)
                0x0000000000000218                __vector_offset_65 = DEFINED (__vector_dispatch_65)?(. - _ebase_address):__vector_offset_default
 *(.vector_65)
                0x000000009d000218                . = ALIGN (0x4)
                0x0000000000000218                __vector_offset_66 = DEFINED (__vector_dispatch_66)?(. - _ebase_address):__vector_offset_default
 *(.vector_66)
                0x000000009d000218                . = ALIGN (0x4)
                0x0000000000000218                __vector_offset_67 = DEFINED (__vector_dispatch_67)?(. - _ebase_address):__vector_offset_default
 *(.vector_67)
                0x000000009d000218                . = ALIGN (0x4)
                0x0000000000000218                __vector_offset_68 = DEFINED (__vector_dispatch_68)?(. - _ebase_address):__vector_offset_default
 *(.vector_68)
                0x000000009d000218                . = ALIGN (0x4)
                0x0000000000000218                __vector_offset_69 = DEFINED (__vector_dispatch_69)?(. - _ebase_address):__vector_offset_default
 *(.vector_69)
                0x000000009d000218                . = ALIGN (0x4)
                0x0000000000000218                __vector_offset_70 = DEFINED (__vector_dispatch_70)?(. - _ebase_address):__vector_offset_default
 *(.vector_70)
                0x000000009d000218                . = ALIGN (0x4)
                0x0000000000000218                __vector_offset_71 = DEFINED (__vector_dispatch_71)?(. - _ebase_address):__vector_offset_default
 *(.vector_71)
                0x000000009d000218                . = ALIGN (0x4)
                0x0000000000000218                __vector_offset_72 = DEFINED (__vector_dispatch_72)?(. - _ebase_address):__vector_offset_default
 *(.vector_72)
                0x000000009d000218                . = ALIGN (0x4)
                0x0000000000000218                __vector_offset_73 = DEFINED (__vector_dispatch_73)?(. - _ebase_address):__vector_offset_default
 *(.vector_73)
                0x000000009d000218                . = ALIGN (0x4)
                0x0000000000000218                __vector_offset_74 = DEFINED (__vector_dispatch_74)?(. - _ebase_address):__vector_offset_default
 *(.vector_74)
                0x000000009d000218                . = ALIGN (0x4)
                0x0000000000000218                __vector_offset_75 = DEFINED (__vector_dispatch_75)?(. - _ebase_address):__vector_offset_default
 *(.vector_75)
                0x000000009d000218                . = ALIGN (0x4)
                0x0000000000000218                __vector_offset_76 = DEFINED (__vector_dispatch_76)?(. - _ebase_address):__vector_offset_default
 *(.vector_76)
                0x000000009d000218                . = ALIGN (0x4)
                0x0000000000000218                __vector_offset_77 = DEFINED (__vector_dispatch_77)?(. - _ebase_address):__vector_offset_default
 *(.vector_77)
                0x000000009d000218                . = ALIGN (0x4)
                0x0000000000000218                __vector_offset_78 = DEFINED (__vector_dispatch_78)?(. - _ebase_address):__vector_offset_default
 *(.vector_78)
                0x000000009d000218                . = ALIGN (0x4)
                0x0000000000000218                __vector_offset_79 = DEFINED (__vector_dispatch_79)?(. - _ebase_address):__vector_offset_default
 *(.vector_79)
                0x000000009d000218                . = ALIGN (0x4)
                0x0000000000000218                __vector_offset_80 = DEFINED (__vector_dispatch_80)?(. - _ebase_address):__vector_offset_default
 *(.vector_80)
                0x000000009d000218                . = ALIGN (0x4)
                0x0000000000000218                __vector_offset_81 = DEFINED (__vector_dispatch_81)?(. - _ebase_address):__vector_offset_default
 *(.vector_81)
                0x000000009d000218                . = ALIGN (0x4)
                0x0000000000000218                __vector_offset_82 = DEFINED (__vector_dispatch_82)?(. - _ebase_address):__vector_offset_default
 *(.vector_82)
                0x000000009d000218                . = ALIGN (0x4)
                0x0000000000000218                __vector_offset_83 = DEFINED (__vector_dispatch_83)?(. - _ebase_address):__vector_offset_default
 *(.vector_83)
                0x000000009d000218                . = ALIGN (0x4)
                0x0000000000000218                __vector_offset_84 = DEFINED (__vector_dispatch_84)?(. - _ebase_address):__vector_offset_default
 *(.vector_84)
                0x000000009d000218                . = ALIGN (0x4)
                0x0000000000000218                __vector_offset_85 = DEFINED (__vector_dispatch_85)?(. - _ebase_address):__vector_offset_default
 *(.vector_85)
                0x000000009d000218                . = ALIGN (0x4)
                0x0000000000000218                __vector_offset_86 = DEFINED (__vector_dispatch_86)?(. - _ebase_address):__vector_offset_default
 *(.vector_86)
                0x000000009d000218                . = ALIGN (0x4)
                0x0000000000000218                __vector_offset_87 = DEFINED (__vector_dispatch_87)?(. - _ebase_address):__vector_offset_default
 *(.vector_87)
                0x000000009d000218                . = ALIGN (0x4)
                0x0000000000000218                __vector_offset_88 = DEFINED (__vector_dispatch_88)?(. - _ebase_address):__vector_offset_default
 *(.vector_88)
                0x000000009d000218                . = ALIGN (0x4)
                0x0000000000000218                __vector_offset_89 = DEFINED (__vector_dispatch_89)?(. - _ebase_address):__vector_offset_default
 *(.vector_89)
                0x000000009d000218                . = ALIGN (0x4)
                0x0000000000000218                __vector_offset_90 = DEFINED (__vector_dispatch_90)?(. - _ebase_address):__vector_offset_default
 *(.vector_90)
                0x000000009d000218                . = ALIGN (0x4)
                0x0000000000000218                __vector_offset_91 = DEFINED (__vector_dispatch_91)?(. - _ebase_address):__vector_offset_default
 *(.vector_91)
                0x000000009d000218                . = ALIGN (0x4)
                0x0000000000000218                __vector_offset_92 = DEFINED (__vector_dispatch_92)?(. - _ebase_address):__vector_offset_default
 *(.vector_92)
                0x000000009d000218                . = ALIGN (0x4)
                0x0000000000000218                __vector_offset_93 = DEFINED (__vector_dispatch_93)?(. - _ebase_address):__vector_offset_default
 *(.vector_93)
                0x000000009d000218                . = ALIGN (0x4)
                0x0000000000000218                __vector_offset_94 = DEFINED (__vector_dispatch_94)?(. - _ebase_address):__vector_offset_default
 *(.vector_94)
                0x000000009d000218                . = ALIGN (0x4)
                0x0000000000000218                __vector_offset_95 = DEFINED (__vector_dispatch_95)?(. - _ebase_address):__vector_offset_default
 *(.vector_95)
                0x000000009d000218                . = ALIGN (0x4)
                0x0000000000000218                __vector_offset_96 = DEFINED (__vector_dispatch_96)?(. - _ebase_address):__vector_offset_default
 *(.vector_96)
                0x000000009d000218                . = ALIGN (0x4)
                0x0000000000000218                __vector_offset_97 = DEFINED (__vector_dispatch_97)?(. - _ebase_address):__vector_offset_default
 *(.vector_97)
                0x000000009d000218                . = ALIGN (0x4)
                0x0000000000000218                __vector_offset_98 = DEFINED (__vector_dispatch_98)?(. - _ebase_address):__vector_offset_default
 *(.vector_98)
                0x000000009d000218                . = ALIGN (0x4)
                0x0000000000000218                __vector_offset_99 = DEFINED (__vector_dispatch_99)?(. - _ebase_address):__vector_offset_default
 *(.vector_99)
                0x000000009d000218                . = ALIGN (0x4)
                0x0000000000000218                __vector_offset_100 = DEFINED (__vector_dispatch_100)?(. - _ebase_address):__vector_offset_default
 *(.vector_100)
                0x000000009d000218                . = ALIGN (0x4)
                0x0000000000000218                __vector_offset_101 = DEFINED (__vector_dispatch_101)?(. - _ebase_address):__vector_offset_default
 *(.vector_101)
                0x000000009d000218                . = ALIGN (0x4)
                0x0000000000000218                __vector_offset_102 = DEFINED (__vector_dispatch_102)?(. - _ebase_address):__vector_offset_default
 *(.vector_102)
                0x000000009d000218                . = ALIGN (0x4)
                0x0000000000000218                __vector_offset_103 = DEFINED (__vector_dispatch_103)?(. - _ebase_address):__vector_offset_default
 *(.vector_103)
                0x000000009d000218                . = ALIGN (0x4)
                0x0000000000000218                __vector_offset_104 = DEFINED (__vector_dispatch_104)?(. - _ebase_address):__vector_offset_default
 *(.vector_104)
                0x000000009d000218                . = ALIGN (0x4)
                0x0000000000000218                __vector_offset_105 = DEFINED (__vector_dispatch_105)?(. - _ebase_address):__vector_offset_default
 *(.vector_105)
                0x000000009d000218                . = ALIGN (0x4)
                0x0000000000000218                __vector_offset_106 = DEFINED (__vector_dispatch_106)?(. - _ebase_address):__vector_offset_default
 *(.vector_106)
                0x000000009d000218                . = ALIGN (0x4)
                0x0000000000000218                __vector_offset_107 = DEFINED (__vector_dispatch_107)?(. - _ebase_address):__vector_offset_default
 *(.vector_107)
                0x000000009d000218                . = ALIGN (0x4)
                0x0000000000000218                __vector_offset_108 = DEFINED (__vector_dispatch_108)?(. - _ebase_address):__vector_offset_default
 *(.vector_108)
                0x000000009d000218                . = ALIGN (0x4)
                0x0000000000000218                __vector_offset_109 = DEFINED (__vector_dispatch_109)?(. - _ebase_address):__vector_offset_default
 *(.vector_109)
                0x000000009d000218                . = ALIGN (0x4)
                0x0000000000000218                __vector_offset_110 = DEFINED (__vector_dispatch_110)?(. - _ebase_address):__vector_offset_default
 *(.vector_110)
                0x000000009d000218                . = ALIGN (0x4)
                0x0000000000000218                __vector_offset_111 = DEFINED (__vector_dispatch_111)?(. - _ebase_address):__vector_offset_default
 *(.vector_111)
                0x000000009d000218                . = ALIGN (0x4)
                0x0000000000000218                __vector_offset_112 = DEFINED (__vector_dispatch_112)?(. - _ebase_address):__vector_offset_default
 *(.vector_112)
                0x000000009d000218                . = ALIGN (0x4)
                0x0000000000000218                __vector_offset_113 = DEFINED (__vector_dispatch_113)?(. - _ebase_address):__vector_offset_default
 *(.vector_113)
                0x000000009d000218                . = ALIGN (0x4)
                0x0000000000000218                __vector_offset_114 = DEFINED (__vector_dispatch_114)?(. - _ebase_address):__vector_offset_default
 *(.vector_114)
                0x000000009d000218                . = ALIGN (0x4)
                0x0000000000000218                __vector_offset_115 = DEFINED (__vector_dispatch_115)?(. - _ebase_address):__vector_offset_default
 *(.vector_115)
                0x000000009d000218                . = ALIGN (0x4)
                0x0000000000000218                __vector_offset_116 = DEFINED (__vector_dispatch_116)?(. - _ebase_address):__vector_offset_default
 *(.vector_116)
                0x000000009d000218                . = ALIGN (0x4)
                0x0000000000000218                __vector_offset_117 = DEFINED (__vector_dispatch_117)?(. - _ebase_address):__vector_offset_default
 *(.vector_117)
                0x000000009d000218                . = ALIGN (0x4)
                0x0000000000000218                __vector_offset_118 = DEFINED (__vector_dispatch_118)?(. - _ebase_address):__vector_offset_default
 *(.vector_118)
                0x000000009d000218                . = ALIGN (0x4)
                0x0000000000000218                __vector_offset_119 = DEFINED (__vector_dispatch_119)?(. - _ebase_address):__vector_offset_default
 *(.vector_119)
                0x000000009d000218                . = ALIGN (0x4)
                0x0000000000000218                __vector_offset_120 = DEFINED (__vector_dispatch_120)?(. - _ebase_address):__vector_offset_default
 *(.vector_120)
                0x000000009d000218                . = ALIGN (0x4)
                0x0000000000000218                __vector_offset_121 = DEFINED (__vector_dispatch_121)?(. - _ebase_address):__vector_offset_default
 *(.vector_121)
                0x000000009d000218                . = ALIGN (0x4)
                0x0000000000000218                __vector_offset_122 = DEFINED (__vector_dispatch_122)?(. - _ebase_address):__vector_offset_default
 *(.vector_122)
                0x000000009d000218                . = ALIGN (0x4)
                0x0000000000000218                __vector_offset_123 = DEFINED (__vector_dispatch_123)?(. - _ebase_address):__vector_offset_default
 *(.vector_123)
                0x000000009d000218                . = ALIGN (0x4)
                0x0000000000000218                __vector_offset_124 = DEFINED (__vector_dispatch_124)?(. - _ebase_address):__vector_offset_default
 *(.vector_124)
                0x000000009d000218                . = ALIGN (0x4)
                0x0000000000000218                __vector_offset_125 = DEFINED (__vector_dispatch_125)?(. - _ebase_address):__vector_offset_default
 *(.vector_125)
                0x000000009d000218                . = ALIGN (0x4)
                0x0000000000000218                __vector_offset_126 = DEFINED (__vector_dispatch_126)?(. - _ebase_address):__vector_offset_default
 *(.vector_126)
                0x000000009d000218                . = ALIGN (0x4)
                0x0000000000000218                __vector_offset_127 = DEFINED (__vector_dispatch_127)?(. - _ebase_address):__vector_offset_default
 *(.vector_127)
                0x000000009d000218                . = ALIGN (0x4)
                0x0000000000000218                __vector_offset_128 = DEFINED (__vector_dispatch_128)?(. - _ebase_address):__vector_offset_default
 *(.vector_128)
                0x000000009d000218                . = ALIGN (0x4)
                0x0000000000000218                __vector_offset_129 = DEFINED (__vector_dispatch_129)?(. - _ebase_address):__vector_offset_default
 *(.vector_129)
                0x000000009d000218                . = ALIGN (0x4)
                0x0000000000000218                __vector_offset_130 = DEFINED (__vector_dispatch_130)?(. - _ebase_address):__vector_offset_default
 *(.vector_130)
                0x000000009d000218                . = ALIGN (0x4)
                0x0000000000000218                __vector_offset_131 = DEFINED (__vector_dispatch_131)?(. - _ebase_address):__vector_offset_default
 *(.vector_131)
                0x000000009d000218                . = ALIGN (0x4)
                0x0000000000000218                __vector_offset_132 = DEFINED (__vector_dispatch_132)?(. - _ebase_address):__vector_offset_default
 *(.vector_132)
                0x000000009d000218                . = ALIGN (0x4)
                0x0000000000000218                __vector_offset_133 = DEFINED (__vector_dispatch_133)?(. - _ebase_address):__vector_offset_default
 *(.vector_133)
                0x000000009d000218                . = ALIGN (0x4)
                0x0000000000000218                __vector_offset_134 = DEFINED (__vector_dispatch_134)?(. - _ebase_address):__vector_offset_default
 *(.vector_134)
                0x000000009d000218                . = ALIGN (0x4)
                0x0000000000000218                __vector_offset_135 = DEFINED (__vector_dispatch_135)?(. - _ebase_address):__vector_offset_default
 *(.vector_135)
                0x000000009d000218                . = ALIGN (0x4)
                0x0000000000000218                __vector_offset_136 = DEFINED (__vector_dispatch_136)?(. - _ebase_address):__vector_offset_default
 *(.vector_136)
                0x000000009d000218                . = ALIGN (0x4)
                0x0000000000000218                __vector_offset_137 = DEFINED (__vector_dispatch_137)?(. - _ebase_address):__vector_offset_default
 *(.vector_137)
                0x000000009d000218                . = ALIGN (0x4)
                0x0000000000000218                __vector_offset_138 = DEFINED (__vector_dispatch_138)?(. - _ebase_address):__vector_offset_default
 *(.vector_138)
                0x000000009d000218                . = ALIGN (0x4)
                0x0000000000000218                __vector_offset_139 = DEFINED (__vector_dispatch_139)?(. - _ebase_address):__vector_offset_default
 *(.vector_139)
                0x000000009d000218                . = ALIGN (0x4)
                0x0000000000000218                __vector_offset_140 = DEFINED (__vector_dispatch_140)?(. - _ebase_address):__vector_offset_default
 *(.vector_140)
                0x000000009d000218                . = ALIGN (0x4)
                0x0000000000000218                __vector_offset_141 = DEFINED (__vector_dispatch_141)?(. - _ebase_address):__vector_offset_default
 *(.vector_141)
                0x000000009d000218                . = ALIGN (0x4)
                0x0000000000000218                __vector_offset_142 = DEFINED (__vector_dispatch_142)?(. - _ebase_address):__vector_offset_default
 *(.vector_142)
                0x000000009d000218                . = ALIGN (0x4)
                0x0000000000000218                __vector_offset_143 = DEFINED (__vector_dispatch_143)?(. - _ebase_address):__vector_offset_default
 *(.vector_143)
                0x000000009d000218                . = ALIGN (0x4)
                0x0000000000000218                __vector_offset_144 = DEFINED (__vector_dispatch_144)?(. - _ebase_address):__vector_offset_default
 *(.vector_144)
                0x000000009d000218                . = ALIGN (0x4)
                0x0000000000000218                __vector_offset_145 = DEFINED (__vector_dispatch_145)?(. - _ebase_address):__vector_offset_default
 *(.vector_145)
                0x000000009d000218                . = ALIGN (0x4)
                0x0000000000000218                __vector_offset_146 = DEFINED (__vector_dispatch_146)?(. - _ebase_address):__vector_offset_default
 *(.vector_146)
                0x000000009d000218                . = ALIGN (0x4)
                0x0000000000000218                __vector_offset_147 = DEFINED (__vector_dispatch_147)?(. - _ebase_address):__vector_offset_default
 *(.vector_147)
                0x000000009d000218                . = ALIGN (0x4)
                0x0000000000000218                __vector_offset_148 = DEFINED (__vector_dispatch_148)?(. - _ebase_address):__vector_offset_default
 *(.vector_148)
                0x000000009d000218                . = ALIGN (0x4)
                0x0000000000000218                __vector_offset_149 = DEFINED (__vector_dispatch_149)?(. - _ebase_address):__vector_offset_default
 *(.vector_149)
                0x000000009d000218                . = ALIGN (0x4)
                0x0000000000000218                __vector_offset_150 = DEFINED (__vector_dispatch_150)?(. - _ebase_address):__vector_offset_default
 *(.vector_150)
                0x000000009d000218                . = ALIGN (0x4)
                0x0000000000000218                __vector_offset_151 = DEFINED (__vector_dispatch_151)?(. - _ebase_address):__vector_offset_default
 *(.vector_151)
                0x000000009d000218                . = ALIGN (0x4)
                0x0000000000000218                __vector_offset_152 = DEFINED (__vector_dispatch_152)?(. - _ebase_address):__vector_offset_default
 *(.vector_152)
                0x000000009d000218                . = ALIGN (0x4)
                0x0000000000000218                __vector_offset_153 = DEFINED (__vector_dispatch_153)?(. - _ebase_address):__vector_offset_default
 *(.vector_153)
                0x000000009d000218                . = ALIGN (0x4)
                0x0000000000000218                __vector_offset_154 = DEFINED (__vector_dispatch_154)?(. - _ebase_address):__vector_offset_default
 *(.vector_154)
                0x000000009d000218                . = ALIGN (0x4)
                0x0000000000000218                __vector_offset_155 = DEFINED (__vector_dispatch_155)?(. - _ebase_address):__vector_offset_default
 *(.vector_155)
                0x000000009d000218                . = ALIGN (0x4)
                0x0000000000000218                __vector_offset_156 = DEFINED (__vector_dispatch_156)?(. - _ebase_address):__vector_offset_default
 *(.vector_156)
                0x000000009d000218                . = ALIGN (0x4)
                0x0000000000000218                __vector_offset_157 = DEFINED (__vector_dispatch_157)?(. - _ebase_address):__vector_offset_default
 *(.vector_157)
                0x000000009d000218                . = ALIGN (0x4)
                0x0000000000000218                __vector_offset_158 = DEFINED (__vector_dispatch_158)?(. - _ebase_address):__vector_offset_default
 *(.vector_158)
                0x000000009d000218                . = ALIGN (0x4)
                0x0000000000000218                __vector_offset_159 = DEFINED (__vector_dispatch_159)?(. - _ebase_address):__vector_offset_default
 *(.vector_159)
                0x000000009d000218                . = ALIGN (0x4)
                0x0000000000000218                __vector_offset_160 = DEFINED (__vector_dispatch_160)?(. - _ebase_address):__vector_offset_default
 *(.vector_160)
                0x000000009d000218                . = ALIGN (0x4)
                0x0000000000000218                __vector_offset_161 = DEFINED (__vector_dispatch_161)?(. - _ebase_address):__vector_offset_default
 *(.vector_161)
                0x000000009d000218                . = ALIGN (0x4)
                0x0000000000000218                __vector_offset_162 = DEFINED (__vector_dispatch_162)?(. - _ebase_address):__vector_offset_default
 *(.vector_162)
                0x000000009d000218                . = ALIGN (0x4)
                0x0000000000000218                __vector_offset_163 = DEFINED (__vector_dispatch_163)?(. - _ebase_address):__vector_offset_default
 *(.vector_163)
                0x000000009d000218                . = ALIGN (0x4)
                0x0000000000000218                __vector_offset_164 = DEFINED (__vector_dispatch_164)?(. - _ebase_address):__vector_offset_default
 *(.vector_164)
                0x000000009d000218                . = ALIGN (0x4)
                0x0000000000000218                __vector_offset_165 = DEFINED (__vector_dispatch_165)?(. - _ebase_address):__vector_offset_default
 *(.vector_165)
                0x000000009d000218                . = ALIGN (0x4)
                0x0000000000000218                __vector_offset_166 = DEFINED (__vector_dispatch_166)?(. - _ebase_address):__vector_offset_default
 *(.vector_166)
                0x000000009d000218                . = ALIGN (0x4)
                0x0000000000000218                __vector_offset_167 = DEFINED (__vector_dispatch_167)?(. - _ebase_address):__vector_offset_default
 *(.vector_167)
                0x000000009d000218                . = ALIGN (0x4)
                0x0000000000000218                __vector_offset_168 = DEFINED (__vector_dispatch_168)?(. - _ebase_address):__vector_offset_default
 *(.vector_168)
                0x000000009d000218                . = ALIGN (0x4)
                0x0000000000000218                __vector_offset_169 = DEFINED (__vector_dispatch_169)?(. - _ebase_address):__vector_offset_default
 *(.vector_169)
                0x000000009d000218                . = ALIGN (0x4)
                0x0000000000000218                __vector_offset_170 = DEFINED (__vector_dispatch_170)?(. - _ebase_address):__vector_offset_default
 *(.vector_170)
                0x000000009d000218                . = ALIGN (0x4)
                0x0000000000000218                __vector_offset_171 = DEFINED (__vector_dispatch_171)?(. - _ebase_address):__vector_offset_default
 *(.vector_171)
                0x000000009d000218                . = ALIGN (0x4)
                0x0000000000000218                __vector_offset_172 = DEFINED (__vector_dispatch_172)?(. - _ebase_address):__vector_offset_default
 *(.vector_172)
                0x000000009d000218                . = ALIGN (0x4)
                0x0000000000000218                __vector_offset_173 = DEFINED (__vector_dispatch_173)?(. - _ebase_address):__vector_offset_default
 *(.vector_173)
                0x000000009d000218                . = ALIGN (0x4)
                0x0000000000000218                __vector_offset_174 = DEFINED (__vector_dispatch_174)?(. - _ebase_address):__vector_offset_default
 *(.vector_174)
                0x000000009d000218                . = ALIGN (0x4)
                0x0000000000000218                __vector_offset_175 = DEFINED (__vector_dispatch_175)?(. - _ebase_address):__vector_offset_default
 *(.vector_175)
                0x000000009d000218                . = ALIGN (0x4)
                0x0000000000000218                __vector_offset_176 = DEFINED (__vector_dispatch_176)?(. - _ebase_address):__vector_offset_default
 *(.vector_176)
                0x000000009d000218                . = ALIGN (0x4)
                0x0000000000000218                __vector_offset_177 = DEFINED (__vector_dispatch_177)?(. - _ebase_address):__vector_offset_default
 *(.vector_177)
                0x000000009d000218                . = ALIGN (0x4)
                0x0000000000000218                __vector_offset_178 = DEFINED (__vector_dispatch_178)?(. - _ebase_address):__vector_offset_default
 *(.vector_178)
                0x000000009d000218                . = ALIGN (0x4)
                0x0000000000000218                __vector_offset_179 = DEFINED (__vector_dispatch_179)?(. - _ebase_address):__vector_offset_default
 *(.vector_179)
                0x000000009d000218                . = ALIGN (0x4)
                0x0000000000000218                __vector_offset_180 = DEFINED (__vector_dispatch_180)?(. - _ebase_address):__vector_offset_default
 *(.vector_180)
                0x000000009d000218                . = ALIGN (0x4)
                0x0000000000000218                __vector_offset_181 = DEFINED (__vector_dispatch_181)?(. - _ebase_address):__vector_offset_default
 *(.vector_181)
                0x000000009d000218                . = ALIGN (0x4)
                0x0000000000000218                __vector_offset_182 = DEFINED (__vector_dispatch_182)?(. - _ebase_address):__vector_offset_default
 *(.vector_182)
                0x000000009d000218                . = ALIGN (0x4)
                0x0000000000000218                __vector_offset_183 = DEFINED (__vector_dispatch_183)?(. - _ebase_address):__vector_offset_default
 *(.vector_183)
                0x000000009d000218                . = ALIGN (0x4)
                0x0000000000000218                __vector_offset_184 = DEFINED (__vector_dispatch_184)?(. - _ebase_address):__vector_offset_default
 *(.vector_184)
                0x000000009d000218                . = ALIGN (0x4)
                0x0000000000000218                __vector_offset_185 = DEFINED (__vector_dispatch_185)?(. - _ebase_address):__vector_offset_default
 *(.vector_185)
                0x000000009d000218                . = ALIGN (0x4)
                0x0000000000000218                __vector_offset_186 = DEFINED (__vector_dispatch_186)?(. - _ebase_address):__vector_offset_default
 *(.vector_186)
                0x000000009d000218                . = ALIGN (0x4)
                0x0000000000000218                __vector_offset_187 = DEFINED (__vector_dispatch_187)?(. - _ebase_address):__vector_offset_default
 *(.vector_187)
                0x000000009d000218                . = ALIGN (0x4)
                0x0000000000000218                __vector_offset_188 = DEFINED (__vector_dispatch_188)?(. - _ebase_address):__vector_offset_default
 *(.vector_188)
                0x000000009d000218                . = ALIGN (0x4)
                0x0000000000000218                __vector_offset_189 = DEFINED (__vector_dispatch_189)?(. - _ebase_address):__vector_offset_default
 *(.vector_189)
                0x000000009d000218                . = ALIGN (0x4)
                0x0000000000000218                __vector_offset_190 = DEFINED (__vector_dispatch_190)?(. - _ebase_address):__vector_offset_default
 *(.vector_190)
                0x000000009d000218                . = ALIGN (0x4)
                0x0000000000000218                __vector_offset_191 = DEFINED (__vector_dispatch_191)?(. - _ebase_address):__vector_offset_default
 *(.vector_191)
                0x000000009d000218                . = ALIGN (0x4)
                0x0000000000000218                __vector_offset_192 = DEFINED (__vector_dispatch_192)?(. - _ebase_address):__vector_offset_default
 *(.vector_192)
                0x000000009d000218                . = ALIGN (0x4)
                0x0000000000000218                __vector_offset_193 = DEFINED (__vector_dispatch_193)?(. - _ebase_address):__vector_offset_default
 *(.vector_193)
                0x000000009d000218                . = ALIGN (0x4)
                0x0000000000000218                __vector_offset_194 = DEFINED (__vector_dispatch_194)?(. - _ebase_address):__vector_offset_default
 *(.vector_194)
                0x000000009d000218                . = ALIGN (0x4)
                0x0000000000000218                __vector_offset_195 = DEFINED (__vector_dispatch_195)?(. - _ebase_address):__vector_offset_default
 *(.vector_195)
                0x000000009d000218                . = ALIGN (0x4)
                0x0000000000000218                __vector_offset_196 = DEFINED (__vector_dispatch_196)?(. - _ebase_address):__vector_offset_default
 *(.vector_196)
                0x000000009d000218                . = ALIGN (0x4)
                0x0000000000000218                __vector_offset_197 = DEFINED (__vector_dispatch_197)?(. - _ebase_address):__vector_offset_default
 *(.vector_197)
                0x000000009d000218                . = ALIGN (0x4)
                0x0000000000000218                __vector_offset_198 = DEFINED (__vector_dispatch_198)?(. - _ebase_address):__vector_offset_default
 *(.vector_198)
                0x000000009d000218                . = ALIGN (0x4)
                0x0000000000000218                __vector_offset_199 = DEFINED (__vector_dispatch_199)?(. - _ebase_address):__vector_offset_default
 *(.vector_199)
                0x000000009d000218                . = ALIGN (0x4)
                0x0000000000000218                __vector_offset_200 = DEFINED (__vector_dispatch_200)?(. - _ebase_address):__vector_offset_default
 *(.vector_200)
                0x000000009d000218                . = ALIGN (0x4)
                0x0000000000000218                __vector_offset_201 = DEFINED (__vector_dispatch_201)?(. - _ebase_address):__vector_offset_default
 *(.vector_201)
                0x000000009d000218                . = ALIGN (0x4)
                0x0000000000000218                __vector_offset_202 = DEFINED (__vector_dispatch_202)?(. - _ebase_address):__vector_offset_default
 *(.vector_202)
                0x000000009d000218                . = ALIGN (0x4)
                0x0000000000000218                __vector_offset_203 = DEFINED (__vector_dispatch_203)?(. - _ebase_address):__vector_offset_default
 *(.vector_203)
                0x000000009d000218                . = ALIGN (0x4)
                0x0000000000000218                __vector_offset_204 = DEFINED (__vector_dispatch_204)?(. - _ebase_address):__vector_offset_default
 *(.vector_204)
                0x000000009d000218                . = ALIGN (0x4)
                0x0000000000000218                __vector_offset_205 = DEFINED (__vector_dispatch_205)?(. - _ebase_address):__vector_offset_default
 *(.vector_205)
                0x000000009d000218                . = ALIGN (0x4)
                0x0000000000000218                __vector_offset_206 = DEFINED (__vector_dispatch_206)?(. - _ebase_address):__vector_offset_default
 *(.vector_206)
                0x000000009d000218                . = ALIGN (0x4)
                0x0000000000000218                __vector_offset_207 = DEFINED (__vector_dispatch_207)?(. - _ebase_address):__vector_offset_default
 *(.vector_207)
                0x000000009d000218                . = ALIGN (0x4)
                0x0000000000000218                __vector_offset_208 = DEFINED (__vector_dispatch_208)?(. - _ebase_address):__vector_offset_default
 *(.vector_208)
                0x000000009d000218                . = ALIGN (0x4)
                0x0000000000000218                __vector_offset_209 = DEFINED (__vector_dispatch_209)?(. - _ebase_address):__vector_offset_default
 *(.vector_209)
                0x000000009d000218                . = ALIGN (0x4)
                0x0000000000000218                __vector_offset_210 = DEFINED (__vector_dispatch_210)?(. - _ebase_address):__vector_offset_default
 *(.vector_210)
                0x000000009d000218                . = ALIGN (0x4)
                0x0000000000000218                __vector_offset_211 = DEFINED (__vector_dispatch_211)?(. - _ebase_address):__vector_offset_default
 *(.vector_211)
                0x000000009d000218                . = ALIGN (0x4)
                0x0000000000000218                __vector_offset_212 = DEFINED (__vector_dispatch_212)?(. - _ebase_address):__vector_offset_default
 *(.vector_212)
                0x000000009d000218                . = ALIGN (0x4)
                0x0000000000000218                __vector_offset_213 = DEFINED (__vector_dispatch_213)?(. - _ebase_address):__vector_offset_default
 *(.vector_213)
                0x000000009d000218                . = ALIGN (0x4)
                0x0000000000000218                __vector_offset_214 = DEFINED (__vector_dispatch_214)?(. - _ebase_address):__vector_offset_default
 *(.vector_214)
                0x000000009d000218                . = ALIGN (0x4)
                0x0000000000000218                __vector_offset_215 = DEFINED (__vector_dispatch_215)?(. - _ebase_address):__vector_offset_default
 *(.vector_215)
                0x000000009d000218                . = ALIGN (0x4)
                0x0000000000000218                __vector_offset_216 = DEFINED (__vector_dispatch_216)?(. - _ebase_address):__vector_offset_default
 *(.vector_216)
                0x000000009d000218                . = ALIGN (0x4)
                0x0000000000000218                __vector_offset_217 = DEFINED (__vector_dispatch_217)?(. - _ebase_address):__vector_offset_default
 *(.vector_217)
                0x000000009d000218                . = ALIGN (0x4)
                0x0000000000000218                __vector_offset_218 = DEFINED (__vector_dispatch_218)?(. - _ebase_address):__vector_offset_default
 *(.vector_218)
                0x000000009d000218                . = ALIGN (0x4)
                0x0000000000000218                __vector_offset_219 = DEFINED (__vector_dispatch_219)?(. - _ebase_address):__vector_offset_default
 *(.vector_219)
                0x000000009d000218                . = ALIGN (0x4)
                0x0000000000000218                __vector_offset_220 = DEFINED (__vector_dispatch_220)?(. - _ebase_address):__vector_offset_default
 *(.vector_220)
                0x000000009d000218                . = ALIGN (0x4)
                0x0000000000000218                __vector_offset_221 = DEFINED (__vector_dispatch_221)?(. - _ebase_address):__vector_offset_default
 *(.vector_221)
                0x000000009d000218                . = ALIGN (0x4)
                0x0000000000000218                __vector_offset_222 = DEFINED (__vector_dispatch_222)?(. - _ebase_address):__vector_offset_default
 *(.vector_222)
                0x000000009d000218                . = ALIGN (0x4)
                0x0000000000000218                __vector_offset_223 = DEFINED (__vector_dispatch_223)?(. - _ebase_address):__vector_offset_default
 *(.vector_223)
                0x000000009d000218                . = ALIGN (0x4)
                0x0000000000000218                __vector_offset_224 = DEFINED (__vector_dispatch_224)?(. - _ebase_address):__vector_offset_default
 *(.vector_224)
                0x000000009d000218                . = ALIGN (0x4)
                0x0000000000000218                __vector_offset_225 = DEFINED (__vector_dispatch_225)?(. - _ebase_address):__vector_offset_default
 *(.vector_225)
                0x000000009d000218                . = ALIGN (0x4)
                0x0000000000000218                __vector_offset_226 = DEFINED (__vector_dispatch_226)?(. - _ebase_address):__vector_offset_default
 *(.vector_226)
                0x000000009d000218                . = ALIGN (0x4)
                0x0000000000000218                __vector_offset_227 = DEFINED (__vector_dispatch_227)?(. - _ebase_address):__vector_offset_default
 *(.vector_227)
                0x000000009d000218                . = ALIGN (0x4)
                0x0000000000000218                __vector_offset_228 = DEFINED (__vector_dispatch_228)?(. - _ebase_address):__vector_offset_default
 *(.vector_228)
                0x000000009d000218                . = ALIGN (0x4)
                0x0000000000000218                __vector_offset_229 = DEFINED (__vector_dispatch_229)?(. - _ebase_address):__vector_offset_default
 *(.vector_229)
                0x000000009d000218                . = ALIGN (0x4)
                0x0000000000000218                __vector_offset_230 = DEFINED (__vector_dispatch_230)?(. - _ebase_address):__vector_offset_default
 *(.vector_230)
                0x000000009d000218                . = ALIGN (0x4)
                0x0000000000000218                __vector_offset_231 = DEFINED (__vector_dispatch_231)?(. - _ebase_address):__vector_offset_default
 *(.vector_231)
                0x000000009d000218                . = ALIGN (0x4)
                0x0000000000000218                __vector_offset_232 = DEFINED (__vector_dispatch_232)?(. - _ebase_address):__vector_offset_default
 *(.vector_232)
                0x000000009d000218                . = ALIGN (0x4)
                0x0000000000000218                __vector_offset_233 = DEFINED (__vector_dispatch_233)?(. - _ebase_address):__vector_offset_default
 *(.vector_233)
                0x000000009d000218                . = ALIGN (0x4)
                0x0000000000000218                __vector_offset_234 = DEFINED (__vector_dispatch_234)?(. - _ebase_address):__vector_offset_default
 *(.vector_234)
                0x000000009d000218                . = ALIGN (0x4)
                0x0000000000000218                __vector_offset_235 = DEFINED (__vector_dispatch_235)?(. - _ebase_address):__vector_offset_default
 *(.vector_235)
                0x000000009d000218                . = ALIGN (0x4)
                0x0000000000000218                __vector_offset_236 = DEFINED (__vector_dispatch_236)?(. - _ebase_address):__vector_offset_default
 *(.vector_236)
                0x000000009d000218                . = ALIGN (0x4)
                0x0000000000000218                __vector_offset_237 = DEFINED (__vector_dispatch_237)?(. - _ebase_address):__vector_offset_default
 *(.vector_237)
                0x000000009d000218                . = ALIGN (0x4)
                0x0000000000000218                __vector_offset_238 = DEFINED (__vector_dispatch_238)?(. - _ebase_address):__vector_offset_default
 *(.vector_238)
                0x000000009d000218                . = ALIGN (0x4)
                0x0000000000000218                __vector_offset_239 = DEFINED (__vector_dispatch_239)?(. - _ebase_address):__vector_offset_default
 *(.vector_239)
                0x000000009d000218                . = ALIGN (0x4)
                0x0000000000000218                __vector_offset_240 = DEFINED (__vector_dispatch_240)?(. - _ebase_address):__vector_offset_default
 *(.vector_240)
                0x000000009d000218                . = ALIGN (0x4)
                0x0000000000000218                __vector_offset_241 = DEFINED (__vector_dispatch_241)?(. - _ebase_address):__vector_offset_default
 *(.vector_241)
                0x000000009d000218                . = ALIGN (0x4)
                0x0000000000000218                __vector_offset_242 = DEFINED (__vector_dispatch_242)?(. - _ebase_address):__vector_offset_default
 *(.vector_242)
                0x000000009d000218                . = ALIGN (0x4)
                0x0000000000000218                __vector_offset_243 = DEFINED (__vector_dispatch_243)?(. - _ebase_address):__vector_offset_default
 *(.vector_243)
                0x000000009d000218                . = ALIGN (0x4)
                0x0000000000000218                __vector_offset_244 = DEFINED (__vector_dispatch_244)?(. - _ebase_address):__vector_offset_default
 *(.vector_244)
                0x000000009d000218                . = ALIGN (0x4)
                0x0000000000000218                __vector_offset_245 = DEFINED (__vector_dispatch_245)?(. - _ebase_address):__vector_offset_default
 *(.vector_245)
                0x000000009d000218                . = ALIGN (0x4)
                0x0000000000000218                __vector_offset_246 = DEFINED (__vector_dispatch_246)?(. - _ebase_address):__vector_offset_default
 *(.vector_246)
                0x000000009d000218                . = ALIGN (0x4)
                0x0000000000000218                __vector_offset_247 = DEFINED (__vector_dispatch_247)?(. - _ebase_address):__vector_offset_default
 *(.vector_247)
                0x000000009d000218                . = ALIGN (0x4)
                0x0000000000000218                __vector_offset_248 = DEFINED (__vector_dispatch_248)?(. - _ebase_address):__vector_offset_default
 *(.vector_248)
                0x000000009d000218                . = ALIGN (0x4)
                0x0000000000000218                __vector_offset_249 = DEFINED (__vector_dispatch_249)?(. - _ebase_address):__vector_offset_default
 *(.vector_249)
                0x000000009d000218                . = ALIGN (0x4)
                0x0000000000000218                __vector_offset_250 = DEFINED (__vector_dispatch_250)?(. - _ebase_address):__vector_offset_default
 *(.vector_250)
                0x000000009d000218                . = ALIGN (0x4)
                0x0000000000000218                __vector_offset_251 = DEFINED (__vector_dispatch_251)?(. - _ebase_address):__vector_offset_default
 *(.vector_251)
                0x000000009d000218                . = ALIGN (0x4)
                0x0000000000000218                __vector_offset_252 = DEFINED (__vector_dispatch_252)?(. - _ebase_address):__vector_offset_default
 *(.vector_252)
                0x000000009d000218                . = ALIGN (0x4)
                0x0000000000000218                __vector_offset_253 = DEFINED (__vector_dispatch_253)?(. - _ebase_address):__vector_offset_default
 *(.vector_253)
                0x000000009d000218                . = ALIGN (0x4)
                0x0000000000000218                __vector_offset_254 = DEFINED (__vector_dispatch_254)?(. - _ebase_address):__vector_offset_default
 *(.vector_254)
                0x000000009d000218                . = ALIGN (0x4)
                0x0000000000000218                __vector_offset_255 = DEFINED (__vector_dispatch_255)?(. - _ebase_address):__vector_offset_default
 *(.vector_255)
                0x000000009d000218                . = ALIGN (0x4)
                0x0000000000000218                __vector_offset_default = (. - _ebase_address)
 *(.vector_default)
 .vector_default
                0x000000009d000218       0x48 g:/embedded tools/pic/xc32 compiler/bin/bin/../../lib/gcc/pic32mx/8.3.1/../../../../pic32mx/lib/fpu64\libpic32.a(defaultinterrupt.o)
                0x000000009d000218                _DefaultInterrupt

.startup
 *(.startup)

.text           0x000000009d000260        0x0
 *(.stub .gnu.linkonce.t.*)
 *(.text.*personality*)
 *(.mips16.fn.*)
 *(.mips16.call.*)
 *(.gnu.warning)
                0x000000009d000260                . = ALIGN (0x4)

.init           0x000000009d000260        0x0
 *crti.o(.init)
 *crtbegin.o(.init)
 *(EXCLUDE_FILE(*crtn.o *crtend?.o *crtend.o) .init)
 *crtend.o(.init)
 *crtn.o(.init)
                0x000000009d000260                . = ALIGN (0x4)

.fini           0x000000009d000260        0x0
 *(.fini)
                0x000000009d000260                . = ALIGN (0x4)

.preinit_array  0x000000009d000260        0x0
                [!provide]                        PROVIDE (__preinit_array_start = .)
 *(.preinit_array)
                [!provide]                        PROVIDE (__preinit_array_end = .)
                0x000000009d000260                . = ALIGN (0x4)

.init_array     0x000000009d000260        0x0
                [!provide]                        PROVIDE (__init_array_start = .)
 *(SORT_BY_NAME(.init_array.*))
 *(.init_array)
                [!provide]                        PROVIDE (__init_array_end = .)
                0x000000009d000260                . = ALIGN (0x4)

.fini_array     0x000000009d000260        0x0
                [!provide]                        PROVIDE (__fini_array_start = .)
 *(SORT_BY_NAME(.fini_array.*))
 *(.fini_array)
                [!provide]                        PROVIDE (__fini_array_end = .)
                0x000000009d000260                . = ALIGN (0x4)

.ctors          0x000000009d000260        0x0
 *crtbegin.o(.ctors)
 *crtbegin?.o(.ctors)
 *(EXCLUDE_FILE(*crtend?.o *crtend.o) .ctors)
 *(SORT_BY_NAME(.ctors.*))
 *(.ctors)
                0x000000009d000260                . = ALIGN (0x4)

.dtors          0x000000009d000260        0x0
 *crtbegin.o(.dtors)
 *crtbegin?.o(.dtors)
 *(EXCLUDE_FILE(*crtend?.o *crtend.o) .dtors)
 *(SORT_BY_NAME(.dtors.*))
 *(.dtors)
                0x000000009d000260                . = ALIGN (0x4)

.rodata         0x000000009d000260        0x0
 *(.gnu.linkonce.r.*)
 *(.rodata1)
                0x000000009d000260                . = ALIGN (0x4)

.sdata2         0x000000009d000260        0x0
 *(.sdata2 .sdata2.* .gnu.linkonce.s2.*)
                0x000000009d000260                . = ALIGN (0x4)

.sbss2          0x000000009d000260        0x0
 *(.sbss2 .sbss2.* .gnu.linkonce.sb2.*)
                0x000000009d000260                . = ALIGN (0x4)

.eh_frame_hdr
 *(.eh_frame_hdr)
                0x000000009d000260                . = ALIGN (0x4)

.eh_frame
 *(.eh_frame)
                0x000000009d000260                . = ALIGN (0x4)

.gcc_except_table
 *(.gcc_except_table .gcc_except_table.*)
                0x000000009d000260                . = ALIGN (0x4)

.dbg_data       0x0000000080000000        0x0
                0x0000000080000000                . = (. + DEFINED (_DEBUGGER)?0x200:0x0)
                0x0000000080000000                . = (. + DEFINED (_DEBUGGER)?0x80:0x0)
                0x0000000080000000                . = (. + DEFINED (_DEBUGGER)?0x100:0x0)

.jcr            0x0000000080000000        0x0
 *(.jcr)
                0x0000000080000000                . = ALIGN (0x4)

.eh_frame
 *(.eh_frame)
                0x0000000080000000                . = ALIGN (0x4)

.gcc_except_table
 *(.gcc_except_table .gcc_except_table.*)
                0x0000000080000000                . = ALIGN (0x4)

.persist        0x0000000080000000        0x0
                0x0000000080000000                _persist_begin = .
 *(.persist .persist.*)
                0x0000000080000000                . = ALIGN (0x4)
                0x0000000080000000                _persist_end = .

.data           0x0000000080000000        0x0
 *(.gnu.linkonce.d.*)
 *(.data1)
                0x0000000080000000                . = ALIGN (0x4)
                0x0000000080000000                . = .
                0x0000000080007ff0                _gp = (ALIGN (0x10) + 0x7ff0)

.got            0x0000000080000000        0x0
 *(.got.plt)
 *(.got)
                0x0000000080000000                . = ALIGN (0x4)

.sdata          0x0000000080000000        0x8
                0x0000000080000000                _sdata_begin = .
 *(.sdata .sdata.* .gnu.linkonce.s.*)
 .sdata.state   0x0000000080000000        0x1 build/default/production/_ext/1360937237/main.o
                0x0000000080000000                state
 *fill*         0x0000000080000001        0x3 
 .sdata.compareValue
                0x0000000080000004        0x4 build/default/production/_ext/1249264884/plib_coretimer.o
                0x0000000080000008                . = ALIGN (0x4)
                0x0000000080000008                _sdata_end = .

.lit8
 *(.lit8)

.lit4
 *(.lit4)
                0x0000000080000008                . = ALIGN (0x4)
                0x0000000080000008                _data_end = .
                0x0000000080000008                _bss_begin = .

.sbss           0x0000000080000008       0x18
                0x0000000080000008                _sbss_begin = .
 *(.dynsbss)
 *(.sbss .sbss.* .gnu.linkonce.sb.*)
 .sbss.isPrint  0x0000000080000008        0x1 build/default/production/_ext/1360937237/main.o
                0x0000000080000008                isPrint
 .sbss.isSinglePress
                0x0000000080000009        0x1 build/default/production/_ext/1360937237/main.o
                0x0000000080000009                isSinglePress
 *fill*         0x000000008000000a        0x2 
 .sbss.buttonEvent
                0x000000008000000c        0x4 build/default/production/_ext/1360937237/main.o
 .sbss.tmr3Obj  0x0000000080000010        0x8 build/default/production/_ext/60181895/plib_tmr3.o
 .sbss.tmr1Obj  0x0000000080000018        0x8 build/default/production/_ext/1865638794/plib_tmr1.o
 *(.scommon)
                0x0000000080000020                _sbss_end = .
                0x0000000080000020                . = ALIGN (0x4)

.bss            0x0000000080000020        0x0
 *(.dynbss)
 *(COMMON)
                0x0000000080000020                . = ALIGN ((. != 0x0)?0x4:0x1)
                0x0000000080000020                . = ALIGN (0x4)
                0x0000000080000020                _end = .
                0x0000000080000020                _bss_end = .
                0x0000000000010000                _bmxdudba_address = LENGTH (kseg0_data_mem)
                0x0000000000010000                _bmxdupba_address = LENGTH (kseg0_data_mem)

/DISCARD/
 *(.pdr)
 *(.rel.dyn)
 *(.note.GNU-stack)
 *(.note.GNU-stack)
 *(.gnu_debuglink)
 *(.gnu.lto_*)
 *(.discard)

.gptab.sdata
 *(.gptab.data)
 *(.gptab.sdata)

.gptab.sbss
 *(.gptab.bss)
 *(.gptab.sbss)

.mdebug.abi32   0x0000000000000000        0x0
 *(.mdebug.abi32)
 .mdebug.abi32  0x0000000000000000        0x0 build/default/production/_ext/60165520/plib_clk.o
 .mdebug.abi32  0x0000000000000000        0x0 build/default/production/_ext/1865200349/plib_evic.o
 .mdebug.abi32  0x0000000000000000        0x0 build/default/production/_ext/1865254177/plib_gpio.o
 .mdebug.abi32  0x0000000000000000        0x0 build/default/production/_ext/1865657120/plib_uart1.o
 .mdebug.abi32  0x0000000000000000        0x0 build/default/production/_ext/163028504/xc32_monitor.o
 .mdebug.abi32  0x0000000000000000        0x0 build/default/production/_ext/1171490990/interrupts.o
 .mdebug.abi32  0x0000000000000000        0x0 build/default/production/_ext/1171490990/initialization.o
 .mdebug.abi32  0x0000000000000000        0x0 build/default/production/_ext/1171490990/exceptions.o
 .mdebug.abi32  0x0000000000000000        0x0 build/default/production/_ext/1360937237/main.o
 .mdebug.abi32  0x0000000000000000        0x0 build/default/production/_ext/1249264884/plib_coretimer.o
 .mdebug.abi32  0x0000000000000000        0x0 build/default/production/_ext/60181895/plib_tmr3.o
 .mdebug.abi32  0x0000000000000000        0x0 build/default/production/_ext/1865638794/plib_tmr1.o
 .mdebug.abi32  0x0000000000000000        0x0 g:/embedded tools/pic/xc32 compiler/bin/bin/../../lib/gcc/pic32mx/8.3.1/../../../../pic32mx/lib/fpu64\libpic32.a(default-on-reset.o)
 .mdebug.abi32  0x0000000000000000        0x0 g:/embedded tools/pic/xc32 compiler/bin/bin/../../lib/gcc/pic32mx/8.3.1/../../../../pic32mx/lib/fpu64\libpic32.a(default-on-bootstrap.o)
 .mdebug.abi32  0x0000000000000000        0x0 g:/embedded tools/pic/xc32 compiler/bin/bin/../../lib/gcc/pic32mx/8.3.1/../../../../pic32mx/lib/fpu64\libpic32.a(defaultinterrupt.o)
 .mdebug.abi32  0x0000000000000000        0x0 g:/embedded tools/pic/xc32 compiler/bin/bin/../../lib/gcc/pic32mx/8.3.1/../../../../pic32mx/lib/fpu64\libc-musl.a(stdin.o)
 .mdebug.abi32  0x0000000000000000        0x0 g:/embedded tools/pic/xc32 compiler/bin/bin/../../lib/gcc/pic32mx/8.3.1/../../../../pic32mx/lib/fpu64\libc-musl.a(stdout.o)
 .mdebug.abi32  0x0000000000000000        0x0 g:/embedded tools/pic/xc32 compiler/bin/bin/../../lib/gcc/pic32mx/8.3.1/../../../../pic32mx/lib/fpu64\libc-musl.a(puts.o)
 .mdebug.abi32  0x0000000000000000        0x0 g:/embedded tools/pic/xc32 compiler/bin/bin/../../lib/gcc/pic32mx/8.3.1/../../../../pic32mx/lib/fpu64\libc-musl.a(setbuf.o)
 .mdebug.abi32  0x0000000000000000        0x0 g:/embedded tools/pic/xc32 compiler/bin/bin/../../lib/gcc/pic32mx/8.3.1/../../../../pic32mx/lib/fpu64\libc-musl.a(fputs.o)
 .mdebug.abi32  0x0000000000000000        0x0 g:/embedded tools/pic/xc32 compiler/bin/bin/../../lib/gcc/pic32mx/8.3.1/../../../../pic32mx/lib/fpu64\libc-musl.a(__io_init_needed.o)
 .mdebug.abi32  0x0000000000000000        0x0 g:/embedded tools/pic/xc32 compiler/bin/bin/../../lib/gcc/pic32mx/8.3.1/../../../../pic32mx/lib/fpu64\libc-musl.a(__io_rw_needed.o)
 .mdebug.abi32  0x0000000000000000        0x0 g:/embedded tools/pic/xc32 compiler/bin/bin/../../lib/gcc/pic32mx/8.3.1/../../../../pic32mx/lib/fpu64\libc-musl.a(__out.o)
 .mdebug.abi32  0x0000000000000000        0x0 g:/embedded tools/pic/xc32 compiler/bin/bin/../../lib/gcc/pic32mx/8.3.1/../../../../pic32mx/lib/fpu64\libc-musl.a(__stdio_close.o)
 .mdebug.abi32  0x0000000000000000        0x0 g:/embedded tools/pic/xc32 compiler/bin/bin/../../lib/gcc/pic32mx/8.3.1/../../../../pic32mx/lib/fpu64\libc-musl.a(__stdio_read.o)
 .mdebug.abi32  0x0000000000000000        0x0 g:/embedded tools/pic/xc32 compiler/bin/bin/../../lib/gcc/pic32mx/8.3.1/../../../../pic32mx/lib/fpu64\libc-musl.a(__towrite_rw.o)
 .mdebug.abi32  0x0000000000000000        0x0 g:/embedded tools/pic/xc32 compiler/bin/bin/../../lib/gcc/pic32mx/8.3.1/../../../../pic32mx/lib/fpu64\libc-musl.a(fwrite.o)
 .mdebug.abi32  0x0000000000000000        0x0 g:/embedded tools/pic/xc32 compiler/bin/bin/../../lib/gcc/pic32mx/8.3.1/../../../../pic32mx/lib/fpu64\libc-musl.a(putc.o)
 .mdebug.abi32  0x0000000000000000        0x0 g:/embedded tools/pic/xc32 compiler/bin/bin/../../lib/gcc/pic32mx/8.3.1/../../../../pic32mx/lib/fpu64\libc-musl.a(setvbuf.o)
 .mdebug.abi32  0x0000000000000000        0x0 g:/embedded tools/pic/xc32 compiler/bin/bin/../../lib/gcc/pic32mx/8.3.1/../../../../pic32mx/lib/fpu64\libc-musl.a(memcpy.o)
 .mdebug.abi32  0x0000000000000000        0x0 g:/embedded tools/pic/xc32 compiler/bin/bin/../../lib/gcc/pic32mx/8.3.1/../../../../pic32mx/lib/fpu64\libc-musl.a(strlen.o)
 .mdebug.abi32  0x0000000000000000        0x0 g:/embedded tools/pic/xc32 compiler/bin/bin/../../lib/gcc/pic32mx/8.3.1/../../../../pic32mx/lib/fpu64\libc-musl.a(readv.o)
 .mdebug.abi32  0x0000000000000000        0x0 g:/embedded tools/pic/xc32 compiler/bin/bin/../../lib/gcc/pic32mx/8.3.1/../../../../pic32mx/lib/fpu64\libc-musl.a(malloc.o)
 .mdebug.abi32  0x0000000000000000        0x0 g:/embedded tools/pic/xc32 compiler/bin/bin/../../lib/gcc/pic32mx/8.3.1/../../../../pic32mx/lib/fpu64\libc-musl.a(expand_heap.o)
 .mdebug.abi32  0x0000000000000000        0x0 g:/embedded tools/pic/xc32 compiler/bin/bin/../../lib/gcc/pic32mx/8.3.1/../../../../pic32mx/lib/fpu64\libc-musl.a(__fopen_rw.o)
 .mdebug.abi32  0x0000000000000000        0x0 g:/embedded tools/pic/xc32 compiler/bin/bin/../../lib/gcc/pic32mx/8.3.1/../../../../pic32mx/lib/fpu64\libc-musl.a(__ftello_rw.o)
 .mdebug.abi32  0x0000000000000000        0x0 g:/embedded tools/pic/xc32 compiler/bin/bin/../../lib/gcc/pic32mx/8.3.1/../../../../pic32mx/lib/fpu64\libc-musl.a(__init_stdio.o)
 .mdebug.abi32  0x0000000000000000        0x0 g:/embedded tools/pic/xc32 compiler/bin/bin/../../lib/gcc/pic32mx/8.3.1/../../../../pic32mx/lib/fpu64\libc-musl.a(__io_buf_needed.o)
 .mdebug.abi32  0x0000000000000000        0x0 g:/embedded tools/pic/xc32 compiler/bin/bin/../../lib/gcc/pic32mx/8.3.1/../../../../pic32mx/lib/fpu64\libc-musl.a(__io_file_needed.o)
 .mdebug.abi32  0x0000000000000000        0x0 g:/embedded tools/pic/xc32 compiler/bin/bin/../../lib/gcc/pic32mx/8.3.1/../../../../pic32mx/lib/fpu64\libc-musl.a(__io_std_needed.o)
 .mdebug.abi32  0x0000000000000000        0x0 g:/embedded tools/pic/xc32 compiler/bin/bin/../../lib/gcc/pic32mx/8.3.1/../../../../pic32mx/lib/fpu64\libc-musl.a(__putc.o)
 .mdebug.abi32  0x0000000000000000        0x0 g:/embedded tools/pic/xc32 compiler/bin/bin/../../lib/gcc/pic32mx/8.3.1/../../../../pic32mx/lib/fpu64\libc-musl.a(__stderr.o)
 .mdebug.abi32  0x0000000000000000        0x0 g:/embedded tools/pic/xc32 compiler/bin/bin/../../lib/gcc/pic32mx/8.3.1/../../../../pic32mx/lib/fpu64\libc-musl.a(__stdio_exit.o)
 .mdebug.abi32  0x0000000000000000        0x0 g:/embedded tools/pic/xc32 compiler/bin/bin/../../lib/gcc/pic32mx/8.3.1/../../../../pic32mx/lib/fpu64\libc-musl.a(__stdio_write.o)
 .mdebug.abi32  0x0000000000000000        0x0 g:/embedded tools/pic/xc32 compiler/bin/bin/../../lib/gcc/pic32mx/8.3.1/../../../../pic32mx/lib/fpu64\libc-musl.a(__stdout.o)
 .mdebug.abi32  0x0000000000000000        0x0 g:/embedded tools/pic/xc32 compiler/bin/bin/../../lib/gcc/pic32mx/8.3.1/../../../../pic32mx/lib/fpu64\libc-musl.a(__towrite.o)
 .mdebug.abi32  0x0000000000000000        0x0 g:/embedded tools/pic/xc32 compiler/bin/bin/../../lib/gcc/pic32mx/8.3.1/../../../../pic32mx/lib/fpu64\libc-musl.a(memset.o)
 .mdebug.abi32  0x0000000000000000        0x0 g:/embedded tools/pic/xc32 compiler/bin/bin/../../lib/gcc/pic32mx/8.3.1/../../../../pic32mx/lib/fpu64\libc-musl.a(writev.o)
 .mdebug.abi32  0x0000000000000000        0x0 g:/embedded tools/pic/xc32 compiler/bin/bin/../../lib/gcc/pic32mx/8.3.1/../../../../pic32mx/lib/fpu64\libc-musl.a(libc.o)
 .mdebug.abi32  0x0000000000000000        0x0 g:/embedded tools/pic/xc32 compiler/bin/bin/../../lib/gcc/pic32mx/8.3.1/../../../../pic32mx/lib/fpu64\libc-musl.a(__overflow.o)
 .mdebug.abi32  0x0000000000000000        0x0 g:/embedded tools/pic/xc32 compiler/bin/bin/../../lib/gcc/pic32mx/8.3.1/../../../../pic32mx/lib/fpu64\libc-musl.a(__fclose.o)
 .mdebug.abi32  0x0000000000000000        0x0 g:/embedded tools/pic/xc32 compiler/bin/bin/../../lib/gcc/pic32mx/8.3.1/../../../../pic32mx/lib/fpu64\libc-musl.a(__fopen.o)
 .mdebug.abi32  0x0000000000000000        0x0 g:/embedded tools/pic/xc32 compiler/bin/bin/../../lib/gcc/pic32mx/8.3.1/../../../../pic32mx/lib/fpu64\libc-musl.a(__fseeko.o)
 .mdebug.abi32  0x0000000000000000        0x0 g:/embedded tools/pic/xc32 compiler/bin/bin/../../lib/gcc/pic32mx/8.3.1/../../../../pic32mx/lib/fpu64\libc-musl.a(__ftello.o)
 .mdebug.abi32  0x0000000000000000        0x0 g:/embedded tools/pic/xc32 compiler/bin/bin/../../lib/gcc/pic32mx/8.3.1/../../../../pic32mx/lib/fpu64\libc-musl.a(__fwrite.o)
 .mdebug.abi32  0x0000000000000000        0x0 g:/embedded tools/pic/xc32 compiler/bin/bin/../../lib/gcc/pic32mx/8.3.1/fpu64\libgcc.a(_lshrdi3.o)
 .mdebug.abi32  0x0000000000000000        0x0 g:/embedded tools/pic/xc32 compiler/bin/bin/../../lib/gcc/pic32mx/8.3.1/fpu64\libgcc.a(_ashldi3.o)
 .mdebug.abi32  0x0000000000000000        0x0 g:/embedded tools/pic/xc32 compiler/bin/bin/../../lib/gcc/pic32mx/8.3.1/../../../../pic32mx/lib/fpu64\libpic32.a(sbrk.o)
 .mdebug.abi32  0x0000000000000000        0x0 g:/embedded tools/pic/xc32 compiler/bin/bin/../../lib/gcc/pic32mx/8.3.1/../../../../pic32mx/lib/fpu64\libpic32.a(lseek.o)
 .mdebug.abi32  0x0000000000000000        0x0 g:/embedded tools/pic/xc32 compiler/bin/bin/../../lib/gcc/pic32mx/8.3.1/../../../../pic32mx/lib/fpu64\libpic32.a(close.o)
 .mdebug.abi32  0x0000000000000000        0x0 g:/embedded tools/pic/xc32 compiler/bin/bin/../../lib/gcc/pic32mx/8.3.1/../../../../pic32mx/lib/fpu64\libpic32.a(errno.o)

.mdebug.abiN32
 *(.mdebug.abiN32)

.mdebug.abi64
 *(.mdebug.abi64)

.mdebug.abiO64
 *(.mdebug.abiO64)

.mdebug.eabi32
 *(.mdebug.eabi32)

.mdebug.eabi64
 *(.mdebug.eabi64)

.gcc_compiled_long32
 *(.gcc_compiled_long32)

.gcc_compiled_long64
 *(.gcc_compiled_long64)

.stab
 *(.stab)

.stabstr
 *(.stabstr)

.stab.excl
 *(.stab.excl)

.stab.exclstr
 *(.stab.exclstr)

.stab.index
 *(.stab.index)

.stab.indexstr
 *(.stab.indexstr)

.comment        0x0000000000000000       0x76
 *(.comment)
 .comment       0x0000000000000000       0x2b build/default/production/_ext/60165520/plib_clk.o
                                         0x2c (size before relaxing)
 .comment       0x000000000000002b       0x2c build/default/production/_ext/1865200349/plib_evic.o
 .comment       0x000000000000002b       0x2c build/default/production/_ext/1865254177/plib_gpio.o
 .comment       0x000000000000002b       0x2c build/default/production/_ext/1865657120/plib_uart1.o
 .comment       0x000000000000002b       0x2c build/default/production/_ext/163028504/xc32_monitor.o
 .comment       0x000000000000002b       0x2c build/default/production/_ext/1171490990/interrupts.o
 .comment       0x000000000000002b       0x2c build/default/production/_ext/1171490990/initialization.o
 .comment       0x000000000000002b       0x2c build/default/production/_ext/1171490990/exceptions.o
 .comment       0x000000000000002b       0x2c build/default/production/_ext/1360937237/main.o
 .comment       0x000000000000002b       0x2c build/default/production/_ext/1249264884/plib_coretimer.o
 .comment       0x000000000000002b       0x2c build/default/production/_ext/60181895/plib_tmr3.o
 .comment       0x000000000000002b       0x2c build/default/production/_ext/1865638794/plib_tmr1.o
 .comment       0x000000000000002b       0x2c g:/embedded tools/pic/xc32 compiler/bin/bin/../../lib/gcc/pic32mx/8.3.1/../../../../pic32mx/lib/fpu64\libpic32.a(default-on-reset.o)
 .comment       0x000000000000002b       0x2c g:/embedded tools/pic/xc32 compiler/bin/bin/../../lib/gcc/pic32mx/8.3.1/../../../../pic32mx/lib/fpu64\libpic32.a(default-on-bootstrap.o)
 .comment       0x000000000000002b       0x2c g:/embedded tools/pic/xc32 compiler/bin/bin/../../lib/gcc/pic32mx/8.3.1/../../../../pic32mx/lib/fpu64\libpic32.a(defaultinterrupt.o)
 .comment       0x000000000000002b       0x2c g:/embedded tools/pic/xc32 compiler/bin/bin/../../lib/gcc/pic32mx/8.3.1/../../../../pic32mx/lib/fpu64\libc-musl.a(stdin.o)
 .comment       0x000000000000002b       0x2c g:/embedded tools/pic/xc32 compiler/bin/bin/../../lib/gcc/pic32mx/8.3.1/../../../../pic32mx/lib/fpu64\libc-musl.a(stdout.o)
 .comment       0x000000000000002b       0x2c g:/embedded tools/pic/xc32 compiler/bin/bin/../../lib/gcc/pic32mx/8.3.1/../../../../pic32mx/lib/fpu64\libc-musl.a(puts.o)
 .comment       0x000000000000002b       0x2c g:/embedded tools/pic/xc32 compiler/bin/bin/../../lib/gcc/pic32mx/8.3.1/../../../../pic32mx/lib/fpu64\libc-musl.a(setbuf.o)
 .comment       0x000000000000002b       0x2c g:/embedded tools/pic/xc32 compiler/bin/bin/../../lib/gcc/pic32mx/8.3.1/../../../../pic32mx/lib/fpu64\libc-musl.a(fputs.o)
 .comment       0x000000000000002b       0x2c g:/embedded tools/pic/xc32 compiler/bin/bin/../../lib/gcc/pic32mx/8.3.1/../../../../pic32mx/lib/fpu64\libc-musl.a(__io_init_needed.o)
 .comment       0x000000000000002b       0x2c g:/embedded tools/pic/xc32 compiler/bin/bin/../../lib/gcc/pic32mx/8.3.1/../../../../pic32mx/lib/fpu64\libc-musl.a(__io_rw_needed.o)
 .comment       0x000000000000002b       0x2c g:/embedded tools/pic/xc32 compiler/bin/bin/../../lib/gcc/pic32mx/8.3.1/../../../../pic32mx/lib/fpu64\libc-musl.a(__out.o)
 .comment       0x000000000000002b       0x2c g:/embedded tools/pic/xc32 compiler/bin/bin/../../lib/gcc/pic32mx/8.3.1/../../../../pic32mx/lib/fpu64\libc-musl.a(__stdio_close.o)
 .comment       0x000000000000002b       0x2c g:/embedded tools/pic/xc32 compiler/bin/bin/../../lib/gcc/pic32mx/8.3.1/../../../../pic32mx/lib/fpu64\libc-musl.a(__stdio_read.o)
 .comment       0x000000000000002b       0x2c g:/embedded tools/pic/xc32 compiler/bin/bin/../../lib/gcc/pic32mx/8.3.1/../../../../pic32mx/lib/fpu64\libc-musl.a(__towrite_rw.o)
 .comment       0x000000000000002b       0x2c g:/embedded tools/pic/xc32 compiler/bin/bin/../../lib/gcc/pic32mx/8.3.1/../../../../pic32mx/lib/fpu64\libc-musl.a(fwrite.o)
 .comment       0x000000000000002b       0x2c g:/embedded tools/pic/xc32 compiler/bin/bin/../../lib/gcc/pic32mx/8.3.1/../../../../pic32mx/lib/fpu64\libc-musl.a(putc.o)
 .comment       0x000000000000002b       0x2c g:/embedded tools/pic/xc32 compiler/bin/bin/../../lib/gcc/pic32mx/8.3.1/../../../../pic32mx/lib/fpu64\libc-musl.a(setvbuf.o)
 .comment       0x000000000000002b       0x2c g:/embedded tools/pic/xc32 compiler/bin/bin/../../lib/gcc/pic32mx/8.3.1/../../../../pic32mx/lib/fpu64\libc-musl.a(memcpy.o)
 .comment       0x000000000000002b       0x2c g:/embedded tools/pic/xc32 compiler/bin/bin/../../lib/gcc/pic32mx/8.3.1/../../../../pic32mx/lib/fpu64\libc-musl.a(strlen.o)
 .comment       0x000000000000002b       0x2c g:/embedded tools/pic/xc32 compiler/bin/bin/../../lib/gcc/pic32mx/8.3.1/../../../../pic32mx/lib/fpu64\libc-musl.a(readv.o)
 .comment       0x000000000000002b       0x2c g:/embedded tools/pic/xc32 compiler/bin/bin/../../lib/gcc/pic32mx/8.3.1/../../../../pic32mx/lib/fpu64\libc-musl.a(malloc.o)
 .comment       0x000000000000002b       0x2c g:/embedded tools/pic/xc32 compiler/bin/bin/../../lib/gcc/pic32mx/8.3.1/../../../../pic32mx/lib/fpu64\libc-musl.a(expand_heap.o)
 .comment       0x000000000000002b       0x2c g:/embedded tools/pic/xc32 compiler/bin/bin/../../lib/gcc/pic32mx/8.3.1/../../../../pic32mx/lib/fpu64\libc-musl.a(__fopen_rw.o)
 .comment       0x000000000000002b       0x2c g:/embedded tools/pic/xc32 compiler/bin/bin/../../lib/gcc/pic32mx/8.3.1/../../../../pic32mx/lib/fpu64\libc-musl.a(__ftello_rw.o)
 .comment       0x000000000000002b       0x2c g:/embedded tools/pic/xc32 compiler/bin/bin/../../lib/gcc/pic32mx/8.3.1/../../../../pic32mx/lib/fpu64\libc-musl.a(__init_stdio.o)
 .comment       0x000000000000002b       0x2c g:/embedded tools/pic/xc32 compiler/bin/bin/../../lib/gcc/pic32mx/8.3.1/../../../../pic32mx/lib/fpu64\libc-musl.a(__io_buf_needed.o)
 .comment       0x000000000000002b       0x2c g:/embedded tools/pic/xc32 compiler/bin/bin/../../lib/gcc/pic32mx/8.3.1/../../../../pic32mx/lib/fpu64\libc-musl.a(__io_file_needed.o)
 .comment       0x000000000000002b       0x2c g:/embedded tools/pic/xc32 compiler/bin/bin/../../lib/gcc/pic32mx/8.3.1/../../../../pic32mx/lib/fpu64\libc-musl.a(__io_std_needed.o)
 .comment       0x000000000000002b       0x2c g:/embedded tools/pic/xc32 compiler/bin/bin/../../lib/gcc/pic32mx/8.3.1/../../../../pic32mx/lib/fpu64\libc-musl.a(__putc.o)
 .comment       0x000000000000002b       0x2c g:/embedded tools/pic/xc32 compiler/bin/bin/../../lib/gcc/pic32mx/8.3.1/../../../../pic32mx/lib/fpu64\libc-musl.a(__stderr.o)
 .comment       0x000000000000002b       0x2c g:/embedded tools/pic/xc32 compiler/bin/bin/../../lib/gcc/pic32mx/8.3.1/../../../../pic32mx/lib/fpu64\libc-musl.a(__stdio_exit.o)
 .comment       0x000000000000002b       0x2c g:/embedded tools/pic/xc32 compiler/bin/bin/../../lib/gcc/pic32mx/8.3.1/../../../../pic32mx/lib/fpu64\libc-musl.a(__stdio_write.o)
 .comment       0x000000000000002b       0x2c g:/embedded tools/pic/xc32 compiler/bin/bin/../../lib/gcc/pic32mx/8.3.1/../../../../pic32mx/lib/fpu64\libc-musl.a(__stdout.o)
 .comment       0x000000000000002b       0x2c g:/embedded tools/pic/xc32 compiler/bin/bin/../../lib/gcc/pic32mx/8.3.1/../../../../pic32mx/lib/fpu64\libc-musl.a(__towrite.o)
 .comment       0x000000000000002b       0x2c g:/embedded tools/pic/xc32 compiler/bin/bin/../../lib/gcc/pic32mx/8.3.1/../../../../pic32mx/lib/fpu64\libc-musl.a(memset.o)
 .comment       0x000000000000002b       0x2c g:/embedded tools/pic/xc32 compiler/bin/bin/../../lib/gcc/pic32mx/8.3.1/../../../../pic32mx/lib/fpu64\libc-musl.a(writev.o)
 .comment       0x000000000000002b       0x2c g:/embedded tools/pic/xc32 compiler/bin/bin/../../lib/gcc/pic32mx/8.3.1/../../../../pic32mx/lib/fpu64\libc-musl.a(libc.o)
 .comment       0x000000000000002b       0x2c g:/embedded tools/pic/xc32 compiler/bin/bin/../../lib/gcc/pic32mx/8.3.1/../../../../pic32mx/lib/fpu64\libc-musl.a(__overflow.o)
 .comment       0x000000000000002b       0x2c g:/embedded tools/pic/xc32 compiler/bin/bin/../../lib/gcc/pic32mx/8.3.1/../../../../pic32mx/lib/fpu64\libc-musl.a(__fclose.o)
 .comment       0x000000000000002b       0x2c g:/embedded tools/pic/xc32 compiler/bin/bin/../../lib/gcc/pic32mx/8.3.1/../../../../pic32mx/lib/fpu64\libc-musl.a(__fopen.o)
 .comment       0x000000000000002b       0x2c g:/embedded tools/pic/xc32 compiler/bin/bin/../../lib/gcc/pic32mx/8.3.1/../../../../pic32mx/lib/fpu64\libc-musl.a(__fseeko.o)
 .comment       0x000000000000002b       0x2c g:/embedded tools/pic/xc32 compiler/bin/bin/../../lib/gcc/pic32mx/8.3.1/../../../../pic32mx/lib/fpu64\libc-musl.a(__ftello.o)
 .comment       0x000000000000002b       0x2c g:/embedded tools/pic/xc32 compiler/bin/bin/../../lib/gcc/pic32mx/8.3.1/../../../../pic32mx/lib/fpu64\libc-musl.a(__fwrite.o)
 .comment       0x000000000000002b       0x2c g:/embedded tools/pic/xc32 compiler/bin/bin/../../lib/gcc/pic32mx/8.3.1/fpu64\libgcc.a(_lshrdi3.o)
 .comment       0x000000000000002b       0x2c g:/embedded tools/pic/xc32 compiler/bin/bin/../../lib/gcc/pic32mx/8.3.1/fpu64\libgcc.a(_ashldi3.o)
 .comment       0x000000000000002b       0x4b g:/embedded tools/pic/xc32 compiler/bin/bin/../../lib/gcc/pic32mx/8.3.1/../../../../pic32mx/lib/fpu64\libpic32.a(sbrk.o)
                                         0x77 (size before relaxing)
 .comment       0x0000000000000076       0x2c g:/embedded tools/pic/xc32 compiler/bin/bin/../../lib/gcc/pic32mx/8.3.1/../../../../pic32mx/lib/fpu64\libpic32.a(lseek.o)
 .comment       0x0000000000000076       0x2c g:/embedded tools/pic/xc32 compiler/bin/bin/../../lib/gcc/pic32mx/8.3.1/../../../../pic32mx/lib/fpu64\libpic32.a(close.o)
 .comment       0x0000000000000076       0x2c g:/embedded tools/pic/xc32 compiler/bin/bin/../../lib/gcc/pic32mx/8.3.1/../../../../pic32mx/lib/fpu64\libpic32.a(errno.o)

.debug
 *.elf(.debug)
 *(.debug)

.line
 *.elf(.line)
 *(.line)

.debug_srcinfo
 *.elf(.debug_srcinfo)
 *(.debug_srcinfo)

.debug_sfnames
 *.elf(.debug_sfnames)
 *(.debug_sfnames)

.debug_aranges  0x0000000000000000      0xad0
 *.elf(.debug_aranges)
 *(.debug_aranges)
 .debug_aranges
                0x0000000000000000       0x20 build/default/production/_ext/60165520/plib_clk.o
 .debug_aranges
                0x0000000000000020       0x68 build/default/production/_ext/1865200349/plib_evic.o
 .debug_aranges
                0x0000000000000088       0x90 build/default/production/_ext/1865254177/plib_gpio.o
 .debug_aranges
                0x0000000000000118       0x80 build/default/production/_ext/1865657120/plib_uart1.o
 .debug_aranges
                0x0000000000000198       0x28 build/default/production/_ext/163028504/xc32_monitor.o
 .debug_aranges
                0x00000000000001c0       0x30 build/default/production/_ext/1171490990/interrupts.o
 .debug_aranges
                0x00000000000001f0       0x20 build/default/production/_ext/1171490990/initialization.o
 .debug_aranges
                0x0000000000000210       0x28 build/default/production/_ext/1171490990/exceptions.o
 .debug_aranges
                0x0000000000000238       0x38 build/default/production/_ext/1360937237/main.o
 .debug_aranges
                0x0000000000000270       0x60 build/default/production/_ext/1249264884/plib_coretimer.o
 .debug_aranges
                0x00000000000002d0       0x70 build/default/production/_ext/60181895/plib_tmr3.o
 .debug_aranges
                0x0000000000000340       0x70 build/default/production/_ext/1865638794/plib_tmr1.o
 .debug_aranges
                0x00000000000003b0       0x20 g:/embedded tools/pic/xc32 compiler/bin/bin/../../lib/gcc/pic32mx/8.3.1/../../../../pic32mx/lib/fpu64\libpic32.a(default-on-reset.o)
 .debug_aranges
                0x00000000000003d0       0x20 g:/embedded tools/pic/xc32 compiler/bin/bin/../../lib/gcc/pic32mx/8.3.1/../../../../pic32mx/lib/fpu64\libpic32.a(default-on-bootstrap.o)
 .debug_aranges
                0x00000000000003f0       0x20 g:/embedded tools/pic/xc32 compiler/bin/bin/../../lib/gcc/pic32mx/8.3.1/../../../../pic32mx/lib/fpu64\libpic32.a(defaultinterrupt.o)
 .debug_aranges
                0x0000000000000410       0x28 g:/embedded tools/pic/xc32 compiler/bin/bin/../../lib/gcc/pic32mx/8.3.1/../../../../pic32mx/lib/fpu64\libc-musl.a(stdin.o)
 .debug_aranges
                0x0000000000000438       0x30 g:/embedded tools/pic/xc32 compiler/bin/bin/../../lib/gcc/pic32mx/8.3.1/../../../../pic32mx/lib/fpu64\libc-musl.a(stdout.o)
 .debug_aranges
                0x0000000000000468       0x20 g:/embedded tools/pic/xc32 compiler/bin/bin/../../lib/gcc/pic32mx/8.3.1/../../../../pic32mx/lib/fpu64\libc-musl.a(puts.o)
 .debug_aranges
                0x0000000000000488       0x20 g:/embedded tools/pic/xc32 compiler/bin/bin/../../lib/gcc/pic32mx/8.3.1/../../../../pic32mx/lib/fpu64\libc-musl.a(setbuf.o)
 .debug_aranges
                0x00000000000004a8       0x20 g:/embedded tools/pic/xc32 compiler/bin/bin/../../lib/gcc/pic32mx/8.3.1/../../../../pic32mx/lib/fpu64\libc-musl.a(fputs.o)
 .debug_aranges
                0x00000000000004c8       0x28 g:/embedded tools/pic/xc32 compiler/bin/bin/../../lib/gcc/pic32mx/8.3.1/../../../../pic32mx/lib/fpu64\libc-musl.a(__io_init_needed.o)
 .debug_aranges
                0x00000000000004f0       0x20 g:/embedded tools/pic/xc32 compiler/bin/bin/../../lib/gcc/pic32mx/8.3.1/../../../../pic32mx/lib/fpu64\libc-musl.a(__io_rw_needed.o)
 .debug_aranges
                0x0000000000000510       0x28 g:/embedded tools/pic/xc32 compiler/bin/bin/../../lib/gcc/pic32mx/8.3.1/../../../../pic32mx/lib/fpu64\libc-musl.a(__out.o)
 .debug_aranges
                0x0000000000000538       0x28 g:/embedded tools/pic/xc32 compiler/bin/bin/../../lib/gcc/pic32mx/8.3.1/../../../../pic32mx/lib/fpu64\libc-musl.a(__stdio_close.o)
 .debug_aranges
                0x0000000000000560       0x20 g:/embedded tools/pic/xc32 compiler/bin/bin/../../lib/gcc/pic32mx/8.3.1/../../../../pic32mx/lib/fpu64\libc-musl.a(__stdio_read.o)
 .debug_aranges
                0x0000000000000580       0x20 g:/embedded tools/pic/xc32 compiler/bin/bin/../../lib/gcc/pic32mx/8.3.1/../../../../pic32mx/lib/fpu64\libc-musl.a(__towrite_rw.o)
 .debug_aranges
                0x00000000000005a0       0x28 g:/embedded tools/pic/xc32 compiler/bin/bin/../../lib/gcc/pic32mx/8.3.1/../../../../pic32mx/lib/fpu64\libc-musl.a(fwrite.o)
 .debug_aranges
                0x00000000000005c8       0x30 g:/embedded tools/pic/xc32 compiler/bin/bin/../../lib/gcc/pic32mx/8.3.1/../../../../pic32mx/lib/fpu64\libc-musl.a(putc.o)
 .debug_aranges
                0x00000000000005f8       0x28 g:/embedded tools/pic/xc32 compiler/bin/bin/../../lib/gcc/pic32mx/8.3.1/../../../../pic32mx/lib/fpu64\libc-musl.a(setvbuf.o)
 .debug_aranges
                0x0000000000000620       0x20 g:/embedded tools/pic/xc32 compiler/bin/bin/../../lib/gcc/pic32mx/8.3.1/../../../../pic32mx/lib/fpu64\libc-musl.a(memcpy.o)
 .debug_aranges
                0x0000000000000640       0x20 g:/embedded tools/pic/xc32 compiler/bin/bin/../../lib/gcc/pic32mx/8.3.1/../../../../pic32mx/lib/fpu64\libc-musl.a(strlen.o)
 .debug_aranges
                0x0000000000000660       0x20 g:/embedded tools/pic/xc32 compiler/bin/bin/../../lib/gcc/pic32mx/8.3.1/../../../../pic32mx/lib/fpu64\libc-musl.a(readv.o)
 .debug_aranges
                0x0000000000000680       0x70 g:/embedded tools/pic/xc32 compiler/bin/bin/../../lib/gcc/pic32mx/8.3.1/../../../../pic32mx/lib/fpu64\libc-musl.a(malloc.o)
 .debug_aranges
                0x00000000000006f0       0x20 g:/embedded tools/pic/xc32 compiler/bin/bin/../../lib/gcc/pic32mx/8.3.1/../../../../pic32mx/lib/fpu64\libc-musl.a(expand_heap.o)
 .debug_aranges
                0x0000000000000710       0x20 g:/embedded tools/pic/xc32 compiler/bin/bin/../../lib/gcc/pic32mx/8.3.1/../../../../pic32mx/lib/fpu64\libc-musl.a(__fopen_rw.o)
 .debug_aranges
                0x0000000000000730       0x20 g:/embedded tools/pic/xc32 compiler/bin/bin/../../lib/gcc/pic32mx/8.3.1/../../../../pic32mx/lib/fpu64\libc-musl.a(__ftello_rw.o)
 .debug_aranges
                0x0000000000000750       0x28 g:/embedded tools/pic/xc32 compiler/bin/bin/../../lib/gcc/pic32mx/8.3.1/../../../../pic32mx/lib/fpu64\libc-musl.a(__init_stdio.o)
 .debug_aranges
                0x0000000000000778       0x20 g:/embedded tools/pic/xc32 compiler/bin/bin/../../lib/gcc/pic32mx/8.3.1/../../../../pic32mx/lib/fpu64\libc-musl.a(__io_buf_needed.o)
 .debug_aranges
                0x0000000000000798       0x20 g:/embedded tools/pic/xc32 compiler/bin/bin/../../lib/gcc/pic32mx/8.3.1/../../../../pic32mx/lib/fpu64\libc-musl.a(__io_file_needed.o)
 .debug_aranges
                0x00000000000007b8       0x20 g:/embedded tools/pic/xc32 compiler/bin/bin/../../lib/gcc/pic32mx/8.3.1/../../../../pic32mx/lib/fpu64\libc-musl.a(__io_std_needed.o)
 .debug_aranges
                0x00000000000007d8       0x20 g:/embedded tools/pic/xc32 compiler/bin/bin/../../lib/gcc/pic32mx/8.3.1/../../../../pic32mx/lib/fpu64\libc-musl.a(__putc.o)
 .debug_aranges
                0x00000000000007f8       0x30 g:/embedded tools/pic/xc32 compiler/bin/bin/../../lib/gcc/pic32mx/8.3.1/../../../../pic32mx/lib/fpu64\libc-musl.a(__stderr.o)
 .debug_aranges
                0x0000000000000828       0x30 g:/embedded tools/pic/xc32 compiler/bin/bin/../../lib/gcc/pic32mx/8.3.1/../../../../pic32mx/lib/fpu64\libc-musl.a(__stdio_exit.o)
 .debug_aranges
                0x0000000000000858       0x28 g:/embedded tools/pic/xc32 compiler/bin/bin/../../lib/gcc/pic32mx/8.3.1/../../../../pic32mx/lib/fpu64\libc-musl.a(__stdio_write.o)
 .debug_aranges
                0x0000000000000880       0x30 g:/embedded tools/pic/xc32 compiler/bin/bin/../../lib/gcc/pic32mx/8.3.1/../../../../pic32mx/lib/fpu64\libc-musl.a(__stdout.o)
 .debug_aranges
                0x00000000000008b0       0x28 g:/embedded tools/pic/xc32 compiler/bin/bin/../../lib/gcc/pic32mx/8.3.1/../../../../pic32mx/lib/fpu64\libc-musl.a(__towrite.o)
 .debug_aranges
                0x00000000000008d8       0x20 g:/embedded tools/pic/xc32 compiler/bin/bin/../../lib/gcc/pic32mx/8.3.1/../../../../pic32mx/lib/fpu64\libc-musl.a(memset.o)
 .debug_aranges
                0x00000000000008f8       0x20 g:/embedded tools/pic/xc32 compiler/bin/bin/../../lib/gcc/pic32mx/8.3.1/../../../../pic32mx/lib/fpu64\libc-musl.a(writev.o)
 .debug_aranges
                0x0000000000000918       0x18 g:/embedded tools/pic/xc32 compiler/bin/bin/../../lib/gcc/pic32mx/8.3.1/../../../../pic32mx/lib/fpu64\libc-musl.a(libc.o)
 .debug_aranges
                0x0000000000000930       0x20 g:/embedded tools/pic/xc32 compiler/bin/bin/../../lib/gcc/pic32mx/8.3.1/../../../../pic32mx/lib/fpu64\libc-musl.a(__overflow.o)
 .debug_aranges
                0x0000000000000950       0x20 g:/embedded tools/pic/xc32 compiler/bin/bin/../../lib/gcc/pic32mx/8.3.1/../../../../pic32mx/lib/fpu64\libc-musl.a(__fclose.o)
 .debug_aranges
                0x0000000000000970       0x30 g:/embedded tools/pic/xc32 compiler/bin/bin/../../lib/gcc/pic32mx/8.3.1/../../../../pic32mx/lib/fpu64\libc-musl.a(__fopen.o)
 .debug_aranges
                0x00000000000009a0       0x20 g:/embedded tools/pic/xc32 compiler/bin/bin/../../lib/gcc/pic32mx/8.3.1/../../../../pic32mx/lib/fpu64\libc-musl.a(__fseeko.o)
 .debug_aranges
                0x00000000000009c0       0x28 g:/embedded tools/pic/xc32 compiler/bin/bin/../../lib/gcc/pic32mx/8.3.1/../../../../pic32mx/lib/fpu64\libc-musl.a(__ftello.o)
 .debug_aranges
                0x00000000000009e8       0x28 g:/embedded tools/pic/xc32 compiler/bin/bin/../../lib/gcc/pic32mx/8.3.1/../../../../pic32mx/lib/fpu64\libc-musl.a(__fwrite.o)
 .debug_aranges
                0x0000000000000a10       0x20 g:/embedded tools/pic/xc32 compiler/bin/bin/../../lib/gcc/pic32mx/8.3.1/fpu64\libgcc.a(_lshrdi3.o)
 .debug_aranges
                0x0000000000000a30       0x20 g:/embedded tools/pic/xc32 compiler/bin/bin/../../lib/gcc/pic32mx/8.3.1/fpu64\libgcc.a(_ashldi3.o)
 .debug_aranges
                0x0000000000000a50       0x40 g:/embedded tools/pic/xc32 compiler/bin/bin/../../lib/gcc/pic32mx/8.3.1/../../../../pic32mx/lib/fpu64\libpic32.a(sbrk.o)
 .debug_aranges
                0x0000000000000a90       0x20 g:/embedded tools/pic/xc32 compiler/bin/bin/../../lib/gcc/pic32mx/8.3.1/../../../../pic32mx/lib/fpu64\libpic32.a(lseek.o)
 .debug_aranges
                0x0000000000000ab0       0x20 g:/embedded tools/pic/xc32 compiler/bin/bin/../../lib/gcc/pic32mx/8.3.1/../../../../pic32mx/lib/fpu64\libpic32.a(close.o)

.debug_pubnames
 *.elf(.debug_pubnames)
 *(.debug_pubnames)

.debug_info     0x0000000000000000     0xa08a
 *.elf(.debug_info .gnu.linkonce.wi.*)
 *(.debug_info .gnu.linkonce.wi.*)
 .debug_info    0x0000000000000000      0x27b build/default/production/_ext/60165520/plib_clk.o
 .debug_info    0x000000000000027b      0x34e build/default/production/_ext/1865200349/plib_evic.o
 .debug_info    0x00000000000005c9      0x8d8 build/default/production/_ext/1865254177/plib_gpio.o
 .debug_info    0x0000000000000ea1      0x535 build/default/production/_ext/1865657120/plib_uart1.o
 .debug_info    0x00000000000013d6      0x1d1 build/default/production/_ext/163028504/xc32_monitor.o
 .debug_info    0x00000000000015a7      0x11f build/default/production/_ext/1171490990/interrupts.o
 .debug_info    0x00000000000016c6      0x339 build/default/production/_ext/1171490990/initialization.o
 .debug_info    0x00000000000019ff       0xdd build/default/production/_ext/1171490990/exceptions.o
 .debug_info    0x0000000000001adc      0x415 build/default/production/_ext/1360937237/main.o
 .debug_info    0x0000000000001ef1      0x4e3 build/default/production/_ext/1249264884/plib_coretimer.o
 .debug_info    0x00000000000023d4      0x578 build/default/production/_ext/60181895/plib_tmr3.o
 .debug_info    0x000000000000294c      0x598 build/default/production/_ext/1865638794/plib_tmr1.o
 .debug_info    0x0000000000002ee4       0x3f g:/embedded tools/pic/xc32 compiler/bin/bin/../../lib/gcc/pic32mx/8.3.1/../../../../pic32mx/lib/fpu64\libpic32.a(default-on-reset.o)
 .debug_info    0x0000000000002f23       0x3f g:/embedded tools/pic/xc32 compiler/bin/bin/../../lib/gcc/pic32mx/8.3.1/../../../../pic32mx/lib/fpu64\libpic32.a(default-on-bootstrap.o)
 .debug_info    0x0000000000002f62       0x40 g:/embedded tools/pic/xc32 compiler/bin/bin/../../lib/gcc/pic32mx/8.3.1/../../../../pic32mx/lib/fpu64\libpic32.a(defaultinterrupt.o)
 .debug_info    0x0000000000002fa2      0x3f4 g:/embedded tools/pic/xc32 compiler/bin/bin/../../lib/gcc/pic32mx/8.3.1/../../../../pic32mx/lib/fpu64\libc-musl.a(stdin.o)
 .debug_info    0x0000000000003396      0x40c g:/embedded tools/pic/xc32 compiler/bin/bin/../../lib/gcc/pic32mx/8.3.1/../../../../pic32mx/lib/fpu64\libc-musl.a(stdout.o)
 .debug_info    0x00000000000037a2      0x3a3 g:/embedded tools/pic/xc32 compiler/bin/bin/../../lib/gcc/pic32mx/8.3.1/../../../../pic32mx/lib/fpu64\libc-musl.a(puts.o)
 .debug_info    0x0000000000003b45       0xe4 g:/embedded tools/pic/xc32 compiler/bin/bin/../../lib/gcc/pic32mx/8.3.1/../../../../pic32mx/lib/fpu64\libc-musl.a(setbuf.o)
 .debug_info    0x0000000000003c29      0x3ad g:/embedded tools/pic/xc32 compiler/bin/bin/../../lib/gcc/pic32mx/8.3.1/../../../../pic32mx/lib/fpu64\libc-musl.a(fputs.o)
 .debug_info    0x0000000000003fd6       0xdf g:/embedded tools/pic/xc32 compiler/bin/bin/../../lib/gcc/pic32mx/8.3.1/../../../../pic32mx/lib/fpu64\libc-musl.a(__io_init_needed.o)
 .debug_info    0x00000000000040b5       0xf4 g:/embedded tools/pic/xc32 compiler/bin/bin/../../lib/gcc/pic32mx/8.3.1/../../../../pic32mx/lib/fpu64\libc-musl.a(__io_rw_needed.o)
 .debug_info    0x00000000000041a9      0x29f g:/embedded tools/pic/xc32 compiler/bin/bin/../../lib/gcc/pic32mx/8.3.1/../../../../pic32mx/lib/fpu64\libc-musl.a(__out.o)
 .debug_info    0x0000000000004448      0x3f6 g:/embedded tools/pic/xc32 compiler/bin/bin/../../lib/gcc/pic32mx/8.3.1/../../../../pic32mx/lib/fpu64\libc-musl.a(__stdio_close.o)
 .debug_info    0x000000000000483e      0x3e6 g:/embedded tools/pic/xc32 compiler/bin/bin/../../lib/gcc/pic32mx/8.3.1/../../../../pic32mx/lib/fpu64\libc-musl.a(__stdio_read.o)
 .debug_info    0x0000000000004c24      0x323 g:/embedded tools/pic/xc32 compiler/bin/bin/../../lib/gcc/pic32mx/8.3.1/../../../../pic32mx/lib/fpu64\libc-musl.a(__towrite_rw.o)
 .debug_info    0x0000000000004f47      0x24c g:/embedded tools/pic/xc32 compiler/bin/bin/../../lib/gcc/pic32mx/8.3.1/../../../../pic32mx/lib/fpu64\libc-musl.a(fwrite.o)
 .debug_info    0x0000000000005193      0x217 g:/embedded tools/pic/xc32 compiler/bin/bin/../../lib/gcc/pic32mx/8.3.1/../../../../pic32mx/lib/fpu64\libc-musl.a(putc.o)
 .debug_info    0x00000000000053aa      0x2b2 g:/embedded tools/pic/xc32 compiler/bin/bin/../../lib/gcc/pic32mx/8.3.1/../../../../pic32mx/lib/fpu64\libc-musl.a(setvbuf.o)
 .debug_info    0x000000000000565c       0xf7 g:/embedded tools/pic/xc32 compiler/bin/bin/../../lib/gcc/pic32mx/8.3.1/../../../../pic32mx/lib/fpu64\libc-musl.a(memcpy.o)
 .debug_info    0x0000000000005753       0xa3 g:/embedded tools/pic/xc32 compiler/bin/bin/../../lib/gcc/pic32mx/8.3.1/../../../../pic32mx/lib/fpu64\libc-musl.a(strlen.o)
 .debug_info    0x00000000000057f6      0x144 g:/embedded tools/pic/xc32 compiler/bin/bin/../../lib/gcc/pic32mx/8.3.1/../../../../pic32mx/lib/fpu64\libc-musl.a(readv.o)
 .debug_info    0x000000000000593a      0xfed g:/embedded tools/pic/xc32 compiler/bin/bin/../../lib/gcc/pic32mx/8.3.1/../../../../pic32mx/lib/fpu64\libc-musl.a(malloc.o)
 .debug_info    0x0000000000006927      0x105 g:/embedded tools/pic/xc32 compiler/bin/bin/../../lib/gcc/pic32mx/8.3.1/../../../../pic32mx/lib/fpu64\libc-musl.a(expand_heap.o)
 .debug_info    0x0000000000006a2c      0x3d3 g:/embedded tools/pic/xc32 compiler/bin/bin/../../lib/gcc/pic32mx/8.3.1/../../../../pic32mx/lib/fpu64\libc-musl.a(__fopen_rw.o)
 .debug_info    0x0000000000006dff      0x341 g:/embedded tools/pic/xc32 compiler/bin/bin/../../lib/gcc/pic32mx/8.3.1/../../../../pic32mx/lib/fpu64\libc-musl.a(__ftello_rw.o)
 .debug_info    0x0000000000007140       0xb9 g:/embedded tools/pic/xc32 compiler/bin/bin/../../lib/gcc/pic32mx/8.3.1/../../../../pic32mx/lib/fpu64\libc-musl.a(__init_stdio.o)
 .debug_info    0x00000000000071f9      0x139 g:/embedded tools/pic/xc32 compiler/bin/bin/../../lib/gcc/pic32mx/8.3.1/../../../../pic32mx/lib/fpu64\libc-musl.a(__io_buf_needed.o)
 .debug_info    0x0000000000007332       0xaf g:/embedded tools/pic/xc32 compiler/bin/bin/../../lib/gcc/pic32mx/8.3.1/../../../../pic32mx/lib/fpu64\libc-musl.a(__io_file_needed.o)
 .debug_info    0x00000000000073e1      0x122 g:/embedded tools/pic/xc32 compiler/bin/bin/../../lib/gcc/pic32mx/8.3.1/../../../../pic32mx/lib/fpu64\libc-musl.a(__io_std_needed.o)
 .debug_info    0x0000000000007503      0x284 g:/embedded tools/pic/xc32 compiler/bin/bin/../../lib/gcc/pic32mx/8.3.1/../../../../pic32mx/lib/fpu64\libc-musl.a(__putc.o)
 .debug_info    0x0000000000007787      0x398 g:/embedded tools/pic/xc32 compiler/bin/bin/../../lib/gcc/pic32mx/8.3.1/../../../../pic32mx/lib/fpu64\libc-musl.a(__stderr.o)
 .debug_info    0x0000000000007b1f      0x2cc g:/embedded tools/pic/xc32 compiler/bin/bin/../../lib/gcc/pic32mx/8.3.1/../../../../pic32mx/lib/fpu64\libc-musl.a(__stdio_exit.o)
 .debug_info    0x0000000000007deb      0x42f g:/embedded tools/pic/xc32 compiler/bin/bin/../../lib/gcc/pic32mx/8.3.1/../../../../pic32mx/lib/fpu64\libc-musl.a(__stdio_write.o)
 .debug_info    0x000000000000821a      0x398 g:/embedded tools/pic/xc32 compiler/bin/bin/../../lib/gcc/pic32mx/8.3.1/../../../../pic32mx/lib/fpu64\libc-musl.a(__stdout.o)
 .debug_info    0x00000000000085b2      0x265 g:/embedded tools/pic/xc32 compiler/bin/bin/../../lib/gcc/pic32mx/8.3.1/../../../../pic32mx/lib/fpu64\libc-musl.a(__towrite.o)
 .debug_info    0x0000000000008817       0xc0 g:/embedded tools/pic/xc32 compiler/bin/bin/../../lib/gcc/pic32mx/8.3.1/../../../../pic32mx/lib/fpu64\libc-musl.a(memset.o)
 .debug_info    0x00000000000088d7      0x144 g:/embedded tools/pic/xc32 compiler/bin/bin/../../lib/gcc/pic32mx/8.3.1/../../../../pic32mx/lib/fpu64\libc-musl.a(writev.o)
 .debug_info    0x0000000000008a1b      0x276 g:/embedded tools/pic/xc32 compiler/bin/bin/../../lib/gcc/pic32mx/8.3.1/../../../../pic32mx/lib/fpu64\libc-musl.a(libc.o)
 .debug_info    0x0000000000008c91      0x37f g:/embedded tools/pic/xc32 compiler/bin/bin/../../lib/gcc/pic32mx/8.3.1/../../../../pic32mx/lib/fpu64\libc-musl.a(__overflow.o)
 .debug_info    0x0000000000009010      0x1b1 g:/embedded tools/pic/xc32 compiler/bin/bin/../../lib/gcc/pic32mx/8.3.1/../../../../pic32mx/lib/fpu64\libc-musl.a(__fclose.o)
 .debug_info    0x00000000000091c1      0x2d0 g:/embedded tools/pic/xc32 compiler/bin/bin/../../lib/gcc/pic32mx/8.3.1/../../../../pic32mx/lib/fpu64\libc-musl.a(__fopen.o)
 .debug_info    0x0000000000009491      0x261 g:/embedded tools/pic/xc32 compiler/bin/bin/../../lib/gcc/pic32mx/8.3.1/../../../../pic32mx/lib/fpu64\libc-musl.a(__fseeko.o)
 .debug_info    0x00000000000096f2      0x283 g:/embedded tools/pic/xc32 compiler/bin/bin/../../lib/gcc/pic32mx/8.3.1/../../../../pic32mx/lib/fpu64\libc-musl.a(__ftello.o)
 .debug_info    0x0000000000009975      0x2ac g:/embedded tools/pic/xc32 compiler/bin/bin/../../lib/gcc/pic32mx/8.3.1/../../../../pic32mx/lib/fpu64\libc-musl.a(__fwrite.o)
 .debug_info    0x0000000000009c21      0x1aa g:/embedded tools/pic/xc32 compiler/bin/bin/../../lib/gcc/pic32mx/8.3.1/fpu64\libgcc.a(_lshrdi3.o)
 .debug_info    0x0000000000009dcb      0x1aa g:/embedded tools/pic/xc32 compiler/bin/bin/../../lib/gcc/pic32mx/8.3.1/fpu64\libgcc.a(_ashldi3.o)
 .debug_info    0x0000000000009f75       0x97 g:/embedded tools/pic/xc32 compiler/bin/bin/../../lib/gcc/pic32mx/8.3.1/../../../../pic32mx/lib/fpu64\libpic32.a(sbrk.o)
 .debug_info    0x000000000000a00c       0x3f g:/embedded tools/pic/xc32 compiler/bin/bin/../../lib/gcc/pic32mx/8.3.1/../../../../pic32mx/lib/fpu64\libpic32.a(lseek.o)
 .debug_info    0x000000000000a04b       0x3f g:/embedded tools/pic/xc32 compiler/bin/bin/../../lib/gcc/pic32mx/8.3.1/../../../../pic32mx/lib/fpu64\libpic32.a(close.o)

.debug_abbrev   0x0000000000000000     0x3fc8
 *.elf(.debug_abbrev)
 *(.debug_abbrev)
 .debug_abbrev  0x0000000000000000       0xba build/default/production/_ext/60165520/plib_clk.o
 .debug_abbrev  0x00000000000000ba       0xe6 build/default/production/_ext/1865200349/plib_evic.o
 .debug_abbrev  0x00000000000001a0      0x278 build/default/production/_ext/1865254177/plib_gpio.o
 .debug_abbrev  0x0000000000000418      0x199 build/default/production/_ext/1865657120/plib_uart1.o
 .debug_abbrev  0x00000000000005b1       0xc7 build/default/production/_ext/163028504/xc32_monitor.o
 .debug_abbrev  0x0000000000000678       0x67 build/default/production/_ext/1171490990/interrupts.o
 .debug_abbrev  0x00000000000006df      0x161 build/default/production/_ext/1171490990/initialization.o
 .debug_abbrev  0x0000000000000840       0x67 build/default/production/_ext/1171490990/exceptions.o
 .debug_abbrev  0x00000000000008a7      0x19d build/default/production/_ext/1360937237/main.o
 .debug_abbrev  0x0000000000000a44      0x178 build/default/production/_ext/1249264884/plib_coretimer.o
 .debug_abbrev  0x0000000000000bbc      0x1d5 build/default/production/_ext/60181895/plib_tmr3.o
 .debug_abbrev  0x0000000000000d91      0x20e build/default/production/_ext/1865638794/plib_tmr1.o
 .debug_abbrev  0x0000000000000f9f       0x2e g:/embedded tools/pic/xc32 compiler/bin/bin/../../lib/gcc/pic32mx/8.3.1/../../../../pic32mx/lib/fpu64\libpic32.a(default-on-reset.o)
 .debug_abbrev  0x0000000000000fcd       0x2e g:/embedded tools/pic/xc32 compiler/bin/bin/../../lib/gcc/pic32mx/8.3.1/../../../../pic32mx/lib/fpu64\libpic32.a(default-on-bootstrap.o)
 .debug_abbrev  0x0000000000000ffb       0x31 g:/embedded tools/pic/xc32 compiler/bin/bin/../../lib/gcc/pic32mx/8.3.1/../../../../pic32mx/lib/fpu64\libpic32.a(defaultinterrupt.o)
 .debug_abbrev  0x000000000000102c      0x19f g:/embedded tools/pic/xc32 compiler/bin/bin/../../lib/gcc/pic32mx/8.3.1/../../../../pic32mx/lib/fpu64\libc-musl.a(stdin.o)
 .debug_abbrev  0x00000000000011cb      0x1bd g:/embedded tools/pic/xc32 compiler/bin/bin/../../lib/gcc/pic32mx/8.3.1/../../../../pic32mx/lib/fpu64\libc-musl.a(stdout.o)
 .debug_abbrev  0x0000000000001388      0x159 g:/embedded tools/pic/xc32 compiler/bin/bin/../../lib/gcc/pic32mx/8.3.1/../../../../pic32mx/lib/fpu64\libc-musl.a(puts.o)
 .debug_abbrev  0x00000000000014e1       0xa8 g:/embedded tools/pic/xc32 compiler/bin/bin/../../lib/gcc/pic32mx/8.3.1/../../../../pic32mx/lib/fpu64\libc-musl.a(setbuf.o)
 .debug_abbrev  0x0000000000001589      0x146 g:/embedded tools/pic/xc32 compiler/bin/bin/../../lib/gcc/pic32mx/8.3.1/../../../../pic32mx/lib/fpu64\libc-musl.a(fputs.o)
 .debug_abbrev  0x00000000000016cf       0x81 g:/embedded tools/pic/xc32 compiler/bin/bin/../../lib/gcc/pic32mx/8.3.1/../../../../pic32mx/lib/fpu64\libc-musl.a(__io_init_needed.o)
 .debug_abbrev  0x0000000000001750       0x67 g:/embedded tools/pic/xc32 compiler/bin/bin/../../lib/gcc/pic32mx/8.3.1/../../../../pic32mx/lib/fpu64\libc-musl.a(__io_rw_needed.o)
 .debug_abbrev  0x00000000000017b7      0x17a g:/embedded tools/pic/xc32 compiler/bin/bin/../../lib/gcc/pic32mx/8.3.1/../../../../pic32mx/lib/fpu64\libc-musl.a(__out.o)
 .debug_abbrev  0x0000000000001931      0x15a g:/embedded tools/pic/xc32 compiler/bin/bin/../../lib/gcc/pic32mx/8.3.1/../../../../pic32mx/lib/fpu64\libc-musl.a(__stdio_close.o)
 .debug_abbrev  0x0000000000001a8b      0x16c g:/embedded tools/pic/xc32 compiler/bin/bin/../../lib/gcc/pic32mx/8.3.1/../../../../pic32mx/lib/fpu64\libc-musl.a(__stdio_read.o)
 .debug_abbrev  0x0000000000001bf7       0xf5 g:/embedded tools/pic/xc32 compiler/bin/bin/../../lib/gcc/pic32mx/8.3.1/../../../../pic32mx/lib/fpu64\libc-musl.a(__towrite_rw.o)
 .debug_abbrev  0x0000000000001cec      0x13c g:/embedded tools/pic/xc32 compiler/bin/bin/../../lib/gcc/pic32mx/8.3.1/../../../../pic32mx/lib/fpu64\libc-musl.a(fwrite.o)
 .debug_abbrev  0x0000000000001e28      0x122 g:/embedded tools/pic/xc32 compiler/bin/bin/../../lib/gcc/pic32mx/8.3.1/../../../../pic32mx/lib/fpu64\libc-musl.a(putc.o)
 .debug_abbrev  0x0000000000001f4a      0x135 g:/embedded tools/pic/xc32 compiler/bin/bin/../../lib/gcc/pic32mx/8.3.1/../../../../pic32mx/lib/fpu64\libc-musl.a(setvbuf.o)
 .debug_abbrev  0x000000000000207f       0xaa g:/embedded tools/pic/xc32 compiler/bin/bin/../../lib/gcc/pic32mx/8.3.1/../../../../pic32mx/lib/fpu64\libc-musl.a(memcpy.o)
 .debug_abbrev  0x0000000000002129       0x91 g:/embedded tools/pic/xc32 compiler/bin/bin/../../lib/gcc/pic32mx/8.3.1/../../../../pic32mx/lib/fpu64\libc-musl.a(strlen.o)
 .debug_abbrev  0x00000000000021ba       0xf7 g:/embedded tools/pic/xc32 compiler/bin/bin/../../lib/gcc/pic32mx/8.3.1/../../../../pic32mx/lib/fpu64\libc-musl.a(readv.o)
 .debug_abbrev  0x00000000000022b1      0x43a g:/embedded tools/pic/xc32 compiler/bin/bin/../../lib/gcc/pic32mx/8.3.1/../../../../pic32mx/lib/fpu64\libc-musl.a(malloc.o)
 .debug_abbrev  0x00000000000026eb       0xc4 g:/embedded tools/pic/xc32 compiler/bin/bin/../../lib/gcc/pic32mx/8.3.1/../../../../pic32mx/lib/fpu64\libc-musl.a(expand_heap.o)
 .debug_abbrev  0x00000000000027af      0x12c g:/embedded tools/pic/xc32 compiler/bin/bin/../../lib/gcc/pic32mx/8.3.1/../../../../pic32mx/lib/fpu64\libc-musl.a(__fopen_rw.o)
 .debug_abbrev  0x00000000000028db      0x10b g:/embedded tools/pic/xc32 compiler/bin/bin/../../lib/gcc/pic32mx/8.3.1/../../../../pic32mx/lib/fpu64\libc-musl.a(__ftello_rw.o)
 .debug_abbrev  0x00000000000029e6       0x65 g:/embedded tools/pic/xc32 compiler/bin/bin/../../lib/gcc/pic32mx/8.3.1/../../../../pic32mx/lib/fpu64\libc-musl.a(__init_stdio.o)
 .debug_abbrev  0x0000000000002a4b       0x67 g:/embedded tools/pic/xc32 compiler/bin/bin/../../lib/gcc/pic32mx/8.3.1/../../../../pic32mx/lib/fpu64\libc-musl.a(__io_buf_needed.o)
 .debug_abbrev  0x0000000000002ab2       0x67 g:/embedded tools/pic/xc32 compiler/bin/bin/../../lib/gcc/pic32mx/8.3.1/../../../../pic32mx/lib/fpu64\libc-musl.a(__io_file_needed.o)
 .debug_abbrev  0x0000000000002b19       0x67 g:/embedded tools/pic/xc32 compiler/bin/bin/../../lib/gcc/pic32mx/8.3.1/../../../../pic32mx/lib/fpu64\libc-musl.a(__io_std_needed.o)
 .debug_abbrev  0x0000000000002b80      0x109 g:/embedded tools/pic/xc32 compiler/bin/bin/../../lib/gcc/pic32mx/8.3.1/../../../../pic32mx/lib/fpu64\libc-musl.a(__putc.o)
 .debug_abbrev  0x0000000000002c89      0x16a g:/embedded tools/pic/xc32 compiler/bin/bin/../../lib/gcc/pic32mx/8.3.1/../../../../pic32mx/lib/fpu64\libc-musl.a(__stderr.o)
 .debug_abbrev  0x0000000000002df3      0x170 g:/embedded tools/pic/xc32 compiler/bin/bin/../../lib/gcc/pic32mx/8.3.1/../../../../pic32mx/lib/fpu64\libc-musl.a(__stdio_exit.o)
 .debug_abbrev  0x0000000000002f63      0x1ce g:/embedded tools/pic/xc32 compiler/bin/bin/../../lib/gcc/pic32mx/8.3.1/../../../../pic32mx/lib/fpu64\libc-musl.a(__stdio_write.o)
 .debug_abbrev  0x0000000000003131      0x16a g:/embedded tools/pic/xc32 compiler/bin/bin/../../lib/gcc/pic32mx/8.3.1/../../../../pic32mx/lib/fpu64\libc-musl.a(__stdout.o)
 .debug_abbrev  0x000000000000329b      0x125 g:/embedded tools/pic/xc32 compiler/bin/bin/../../lib/gcc/pic32mx/8.3.1/../../../../pic32mx/lib/fpu64\libc-musl.a(__towrite.o)
 .debug_abbrev  0x00000000000033c0       0x91 g:/embedded tools/pic/xc32 compiler/bin/bin/../../lib/gcc/pic32mx/8.3.1/../../../../pic32mx/lib/fpu64\libc-musl.a(memset.o)
 .debug_abbrev  0x0000000000003451       0xf7 g:/embedded tools/pic/xc32 compiler/bin/bin/../../lib/gcc/pic32mx/8.3.1/../../../../pic32mx/lib/fpu64\libc-musl.a(writev.o)
 .debug_abbrev  0x0000000000003548       0xd4 g:/embedded tools/pic/xc32 compiler/bin/bin/../../lib/gcc/pic32mx/8.3.1/../../../../pic32mx/lib/fpu64\libc-musl.a(libc.o)
 .debug_abbrev  0x000000000000361c      0x141 g:/embedded tools/pic/xc32 compiler/bin/bin/../../lib/gcc/pic32mx/8.3.1/../../../../pic32mx/lib/fpu64\libc-musl.a(__overflow.o)
 .debug_abbrev  0x000000000000375d       0xdd g:/embedded tools/pic/xc32 compiler/bin/bin/../../lib/gcc/pic32mx/8.3.1/../../../../pic32mx/lib/fpu64\libc-musl.a(__fclose.o)
 .debug_abbrev  0x000000000000383a      0x168 g:/embedded tools/pic/xc32 compiler/bin/bin/../../lib/gcc/pic32mx/8.3.1/../../../../pic32mx/lib/fpu64\libc-musl.a(__fopen.o)
 .debug_abbrev  0x00000000000039a2       0xf8 g:/embedded tools/pic/xc32 compiler/bin/bin/../../lib/gcc/pic32mx/8.3.1/../../../../pic32mx/lib/fpu64\libc-musl.a(__fseeko.o)
 .debug_abbrev  0x0000000000003a9a      0x111 g:/embedded tools/pic/xc32 compiler/bin/bin/../../lib/gcc/pic32mx/8.3.1/../../../../pic32mx/lib/fpu64\libc-musl.a(__ftello.o)
 .debug_abbrev  0x0000000000003bab      0x121 g:/embedded tools/pic/xc32 compiler/bin/bin/../../lib/gcc/pic32mx/8.3.1/../../../../pic32mx/lib/fpu64\libc-musl.a(__fwrite.o)
 .debug_abbrev  0x0000000000003ccc      0x121 g:/embedded tools/pic/xc32 compiler/bin/bin/../../lib/gcc/pic32mx/8.3.1/fpu64\libgcc.a(_lshrdi3.o)
 .debug_abbrev  0x0000000000003ded      0x121 g:/embedded tools/pic/xc32 compiler/bin/bin/../../lib/gcc/pic32mx/8.3.1/fpu64\libgcc.a(_ashldi3.o)
 .debug_abbrev  0x0000000000003f0e       0x5e g:/embedded tools/pic/xc32 compiler/bin/bin/../../lib/gcc/pic32mx/8.3.1/../../../../pic32mx/lib/fpu64\libpic32.a(sbrk.o)
 .debug_abbrev  0x0000000000003f6c       0x2e g:/embedded tools/pic/xc32 compiler/bin/bin/../../lib/gcc/pic32mx/8.3.1/../../../../pic32mx/lib/fpu64\libpic32.a(lseek.o)
 .debug_abbrev  0x0000000000003f9a       0x2e g:/embedded tools/pic/xc32 compiler/bin/bin/../../lib/gcc/pic32mx/8.3.1/../../../../pic32mx/lib/fpu64\libpic32.a(close.o)

.debug_line     0x0000000000000000     0x7eee
 *.elf(.debug_line)
 *(.debug_line)
 .debug_line    0x0000000000000000      0x1a7 build/default/production/_ext/60165520/plib_clk.o
 .debug_line    0x00000000000001a7      0x2fc build/default/production/_ext/1865200349/plib_evic.o
 .debug_line    0x00000000000004a3      0x4fd build/default/production/_ext/1865254177/plib_gpio.o
 .debug_line    0x00000000000009a0      0x4f3 build/default/production/_ext/1865657120/plib_uart1.o
 .debug_line    0x0000000000000e93      0x193 build/default/production/_ext/163028504/xc32_monitor.o
 .debug_line    0x0000000000001026       0xd3 build/default/production/_ext/1171490990/interrupts.o
 .debug_line    0x00000000000010f9      0x460 build/default/production/_ext/1171490990/initialization.o
 .debug_line    0x0000000000001559      0x104 build/default/production/_ext/1171490990/exceptions.o
 .debug_line    0x000000000000165d      0x442 build/default/production/_ext/1360937237/main.o
 .debug_line    0x0000000000001a9f      0x28c build/default/production/_ext/1249264884/plib_coretimer.o
 .debug_line    0x0000000000001d2b      0x2c2 build/default/production/_ext/60181895/plib_tmr3.o
 .debug_line    0x0000000000001fed      0x2ce build/default/production/_ext/1865638794/plib_tmr1.o
 .debug_line    0x00000000000022bb       0xa8 g:/embedded tools/pic/xc32 compiler/bin/bin/../../lib/gcc/pic32mx/8.3.1/../../../../pic32mx/lib/fpu64\libpic32.a(default-on-reset.o)
 .debug_line    0x0000000000002363       0xac g:/embedded tools/pic/xc32 compiler/bin/bin/../../lib/gcc/pic32mx/8.3.1/../../../../pic32mx/lib/fpu64\libpic32.a(default-on-bootstrap.o)
 .debug_line    0x000000000000240f       0xcb g:/embedded tools/pic/xc32 compiler/bin/bin/../../lib/gcc/pic32mx/8.3.1/../../../../pic32mx/lib/fpu64\libpic32.a(defaultinterrupt.o)
 .debug_line    0x00000000000024da      0x238 g:/embedded tools/pic/xc32 compiler/bin/bin/../../lib/gcc/pic32mx/8.3.1/../../../../pic32mx/lib/fpu64\libc-musl.a(stdin.o)
 .debug_line    0x0000000000002712      0x266 g:/embedded tools/pic/xc32 compiler/bin/bin/../../lib/gcc/pic32mx/8.3.1/../../../../pic32mx/lib/fpu64\libc-musl.a(stdout.o)
 .debug_line    0x0000000000002978      0x22c g:/embedded tools/pic/xc32 compiler/bin/bin/../../lib/gcc/pic32mx/8.3.1/../../../../pic32mx/lib/fpu64\libc-musl.a(puts.o)
 .debug_line    0x0000000000002ba4      0x198 g:/embedded tools/pic/xc32 compiler/bin/bin/../../lib/gcc/pic32mx/8.3.1/../../../../pic32mx/lib/fpu64\libc-musl.a(setbuf.o)
 .debug_line    0x0000000000002d3c      0x298 g:/embedded tools/pic/xc32 compiler/bin/bin/../../lib/gcc/pic32mx/8.3.1/../../../../pic32mx/lib/fpu64\libc-musl.a(fputs.o)
 .debug_line    0x0000000000002fd4      0x14b g:/embedded tools/pic/xc32 compiler/bin/bin/../../lib/gcc/pic32mx/8.3.1/../../../../pic32mx/lib/fpu64\libc-musl.a(__io_init_needed.o)
 .debug_line    0x000000000000311f      0x13b g:/embedded tools/pic/xc32 compiler/bin/bin/../../lib/gcc/pic32mx/8.3.1/../../../../pic32mx/lib/fpu64\libc-musl.a(__io_rw_needed.o)
 .debug_line    0x000000000000325a      0x29f g:/embedded tools/pic/xc32 compiler/bin/bin/../../lib/gcc/pic32mx/8.3.1/../../../../pic32mx/lib/fpu64\libc-musl.a(__out.o)
 .debug_line    0x00000000000034f9      0x2eb g:/embedded tools/pic/xc32 compiler/bin/bin/../../lib/gcc/pic32mx/8.3.1/../../../../pic32mx/lib/fpu64\libc-musl.a(__stdio_close.o)
 .debug_line    0x00000000000037e4      0x295 g:/embedded tools/pic/xc32 compiler/bin/bin/../../lib/gcc/pic32mx/8.3.1/../../../../pic32mx/lib/fpu64\libc-musl.a(__stdio_read.o)
 .debug_line    0x0000000000003a79      0x242 g:/embedded tools/pic/xc32 compiler/bin/bin/../../lib/gcc/pic32mx/8.3.1/../../../../pic32mx/lib/fpu64\libc-musl.a(__towrite_rw.o)
 .debug_line    0x0000000000003cbb      0x1f6 g:/embedded tools/pic/xc32 compiler/bin/bin/../../lib/gcc/pic32mx/8.3.1/../../../../pic32mx/lib/fpu64\libc-musl.a(fwrite.o)
 .debug_line    0x0000000000003eb1      0x208 g:/embedded tools/pic/xc32 compiler/bin/bin/../../lib/gcc/pic32mx/8.3.1/../../../../pic32mx/lib/fpu64\libc-musl.a(putc.o)
 .debug_line    0x00000000000040b9      0x299 g:/embedded tools/pic/xc32 compiler/bin/bin/../../lib/gcc/pic32mx/8.3.1/../../../../pic32mx/lib/fpu64\libc-musl.a(setvbuf.o)
 .debug_line    0x0000000000004352      0x13f g:/embedded tools/pic/xc32 compiler/bin/bin/../../lib/gcc/pic32mx/8.3.1/../../../../pic32mx/lib/fpu64\libc-musl.a(memcpy.o)
 .debug_line    0x0000000000004491      0x137 g:/embedded tools/pic/xc32 compiler/bin/bin/../../lib/gcc/pic32mx/8.3.1/../../../../pic32mx/lib/fpu64\libc-musl.a(strlen.o)
 .debug_line    0x00000000000045c8      0x1b6 g:/embedded tools/pic/xc32 compiler/bin/bin/../../lib/gcc/pic32mx/8.3.1/../../../../pic32mx/lib/fpu64\libc-musl.a(readv.o)
 .debug_line    0x000000000000477e      0xb30 g:/embedded tools/pic/xc32 compiler/bin/bin/../../lib/gcc/pic32mx/8.3.1/../../../../pic32mx/lib/fpu64\libc-musl.a(malloc.o)
 .debug_line    0x00000000000052ae      0x148 g:/embedded tools/pic/xc32 compiler/bin/bin/../../lib/gcc/pic32mx/8.3.1/../../../../pic32mx/lib/fpu64\libc-musl.a(expand_heap.o)
 .debug_line    0x00000000000053f6      0x2ea g:/embedded tools/pic/xc32 compiler/bin/bin/../../lib/gcc/pic32mx/8.3.1/../../../../pic32mx/lib/fpu64\libc-musl.a(__fopen_rw.o)
 .debug_line    0x00000000000056e0      0x233 g:/embedded tools/pic/xc32 compiler/bin/bin/../../lib/gcc/pic32mx/8.3.1/../../../../pic32mx/lib/fpu64\libc-musl.a(__ftello_rw.o)
 .debug_line    0x0000000000005913       0xcb g:/embedded tools/pic/xc32 compiler/bin/bin/../../lib/gcc/pic32mx/8.3.1/../../../../pic32mx/lib/fpu64\libc-musl.a(__init_stdio.o)
 .debug_line    0x00000000000059de      0x13f g:/embedded tools/pic/xc32 compiler/bin/bin/../../lib/gcc/pic32mx/8.3.1/../../../../pic32mx/lib/fpu64\libc-musl.a(__io_buf_needed.o)
 .debug_line    0x0000000000005b1d       0xbf g:/embedded tools/pic/xc32 compiler/bin/bin/../../lib/gcc/pic32mx/8.3.1/../../../../pic32mx/lib/fpu64\libc-musl.a(__io_file_needed.o)
 .debug_line    0x0000000000005bdc      0x13e g:/embedded tools/pic/xc32 compiler/bin/bin/../../lib/gcc/pic32mx/8.3.1/../../../../pic32mx/lib/fpu64\libc-musl.a(__io_std_needed.o)
 .debug_line    0x0000000000005d1a      0x1be g:/embedded tools/pic/xc32 compiler/bin/bin/../../lib/gcc/pic32mx/8.3.1/../../../../pic32mx/lib/fpu64\libc-musl.a(__putc.o)
 .debug_line    0x0000000000005ed8      0x240 g:/embedded tools/pic/xc32 compiler/bin/bin/../../lib/gcc/pic32mx/8.3.1/../../../../pic32mx/lib/fpu64\libc-musl.a(__stderr.o)
 .debug_line    0x0000000000006118      0x1d6 g:/embedded tools/pic/xc32 compiler/bin/bin/../../lib/gcc/pic32mx/8.3.1/../../../../pic32mx/lib/fpu64\libc-musl.a(__stdio_exit.o)
 .debug_line    0x00000000000062ee      0x374 g:/embedded tools/pic/xc32 compiler/bin/bin/../../lib/gcc/pic32mx/8.3.1/../../../../pic32mx/lib/fpu64\libc-musl.a(__stdio_write.o)
 .debug_line    0x0000000000006662      0x240 g:/embedded tools/pic/xc32 compiler/bin/bin/../../lib/gcc/pic32mx/8.3.1/../../../../pic32mx/lib/fpu64\libc-musl.a(__stdout.o)
 .debug_line    0x00000000000068a2      0x1dd g:/embedded tools/pic/xc32 compiler/bin/bin/../../lib/gcc/pic32mx/8.3.1/../../../../pic32mx/lib/fpu64\libc-musl.a(__towrite.o)
 .debug_line    0x0000000000006a7f      0x133 g:/embedded tools/pic/xc32 compiler/bin/bin/../../lib/gcc/pic32mx/8.3.1/../../../../pic32mx/lib/fpu64\libc-musl.a(memset.o)
 .debug_line    0x0000000000006bb2      0x1b7 g:/embedded tools/pic/xc32 compiler/bin/bin/../../lib/gcc/pic32mx/8.3.1/../../../../pic32mx/lib/fpu64\libc-musl.a(writev.o)
 .debug_line    0x0000000000006d69      0x10f g:/embedded tools/pic/xc32 compiler/bin/bin/../../lib/gcc/pic32mx/8.3.1/../../../../pic32mx/lib/fpu64\libc-musl.a(libc.o)
 .debug_line    0x0000000000006e78      0x250 g:/embedded tools/pic/xc32 compiler/bin/bin/../../lib/gcc/pic32mx/8.3.1/../../../../pic32mx/lib/fpu64\libc-musl.a(__overflow.o)
 .debug_line    0x00000000000070c8      0x1ad g:/embedded tools/pic/xc32 compiler/bin/bin/../../lib/gcc/pic32mx/8.3.1/../../../../pic32mx/lib/fpu64\libc-musl.a(__fclose.o)
 .debug_line    0x0000000000007275      0x277 g:/embedded tools/pic/xc32 compiler/bin/bin/../../lib/gcc/pic32mx/8.3.1/../../../../pic32mx/lib/fpu64\libc-musl.a(__fopen.o)
 .debug_line    0x00000000000074ec      0x1a1 g:/embedded tools/pic/xc32 compiler/bin/bin/../../lib/gcc/pic32mx/8.3.1/../../../../pic32mx/lib/fpu64\libc-musl.a(__fseeko.o)
 .debug_line    0x000000000000768d      0x1d2 g:/embedded tools/pic/xc32 compiler/bin/bin/../../lib/gcc/pic32mx/8.3.1/../../../../pic32mx/lib/fpu64\libc-musl.a(__ftello.o)
 .debug_line    0x000000000000785f      0x1e4 g:/embedded tools/pic/xc32 compiler/bin/bin/../../lib/gcc/pic32mx/8.3.1/../../../../pic32mx/lib/fpu64\libc-musl.a(__fwrite.o)
 .debug_line    0x0000000000007a43       0xdf g:/embedded tools/pic/xc32 compiler/bin/bin/../../lib/gcc/pic32mx/8.3.1/fpu64\libgcc.a(_lshrdi3.o)
 .debug_line    0x0000000000007b22       0xe0 g:/embedded tools/pic/xc32 compiler/bin/bin/../../lib/gcc/pic32mx/8.3.1/fpu64\libgcc.a(_ashldi3.o)
 .debug_line    0x0000000000007c02      0x1b2 g:/embedded tools/pic/xc32 compiler/bin/bin/../../lib/gcc/pic32mx/8.3.1/../../../../pic32mx/lib/fpu64\libpic32.a(sbrk.o)
 .debug_line    0x0000000000007db4       0x9d g:/embedded tools/pic/xc32 compiler/bin/bin/../../lib/gcc/pic32mx/8.3.1/../../../../pic32mx/lib/fpu64\libpic32.a(lseek.o)
 .debug_line    0x0000000000007e51       0x9d g:/embedded tools/pic/xc32 compiler/bin/bin/../../lib/gcc/pic32mx/8.3.1/../../../../pic32mx/lib/fpu64\libpic32.a(close.o)
 .debug_line    0x0000000000007eee        0x0 g:/embedded tools/pic/xc32 compiler/bin/bin/../../lib/gcc/pic32mx/8.3.1/../../../../pic32mx/lib/fpu64\libpic32.a(errno.o)

.debug_frame    0x0000000000000000     0x140c
 *.elf(.debug_frame)
 *(.debug_frame)
 .debug_frame   0x0000000000000000       0x20 build/default/production/_ext/60165520/plib_clk.o
 .debug_frame   0x0000000000000020       0xd4 build/default/production/_ext/1865200349/plib_evic.o
 .debug_frame   0x00000000000000f4      0x10c build/default/production/_ext/1865254177/plib_gpio.o
 .debug_frame   0x0000000000000200      0x104 build/default/production/_ext/1865657120/plib_uart1.o
 .debug_frame   0x0000000000000304       0x50 build/default/production/_ext/163028504/xc32_monitor.o
 .debug_frame   0x0000000000000354      0x1cc build/default/production/_ext/1171490990/interrupts.o
 .debug_frame   0x0000000000000520       0x2c build/default/production/_ext/1171490990/initialization.o
 .debug_frame   0x000000000000054c       0x40 build/default/production/_ext/1171490990/exceptions.o
 .debug_frame   0x000000000000058c       0x80 build/default/production/_ext/1360937237/main.o
 .debug_frame   0x000000000000060c       0xf4 build/default/production/_ext/1249264884/plib_coretimer.o
 .debug_frame   0x0000000000000700       0xcc build/default/production/_ext/60181895/plib_tmr3.o
 .debug_frame   0x00000000000007cc       0xcc build/default/production/_ext/1865638794/plib_tmr1.o
 .debug_frame   0x0000000000000898       0x20 g:/embedded tools/pic/xc32 compiler/bin/bin/../../lib/gcc/pic32mx/8.3.1/../../../../pic32mx/lib/fpu64\libpic32.a(default-on-reset.o)
 .debug_frame   0x00000000000008b8       0x20 g:/embedded tools/pic/xc32 compiler/bin/bin/../../lib/gcc/pic32mx/8.3.1/../../../../pic32mx/lib/fpu64\libpic32.a(default-on-bootstrap.o)
 .debug_frame   0x00000000000008d8       0x20 g:/embedded tools/pic/xc32 compiler/bin/bin/../../lib/gcc/pic32mx/8.3.1/../../../../pic32mx/lib/fpu64\libpic32.a(defaultinterrupt.o)
 .debug_frame   0x00000000000008f8       0x3c g:/embedded tools/pic/xc32 compiler/bin/bin/../../lib/gcc/pic32mx/8.3.1/../../../../pic32mx/lib/fpu64\libc-musl.a(stdin.o)
 .debug_frame   0x0000000000000934       0x4c g:/embedded tools/pic/xc32 compiler/bin/bin/../../lib/gcc/pic32mx/8.3.1/../../../../pic32mx/lib/fpu64\libc-musl.a(stdout.o)
 .debug_frame   0x0000000000000980       0x2c g:/embedded tools/pic/xc32 compiler/bin/bin/../../lib/gcc/pic32mx/8.3.1/../../../../pic32mx/lib/fpu64\libc-musl.a(puts.o)
 .debug_frame   0x00000000000009ac       0x2c g:/embedded tools/pic/xc32 compiler/bin/bin/../../lib/gcc/pic32mx/8.3.1/../../../../pic32mx/lib/fpu64\libc-musl.a(setbuf.o)
 .debug_frame   0x00000000000009d8       0x30 g:/embedded tools/pic/xc32 compiler/bin/bin/../../lib/gcc/pic32mx/8.3.1/../../../../pic32mx/lib/fpu64\libc-musl.a(fputs.o)
 .debug_frame   0x0000000000000a08       0x48 g:/embedded tools/pic/xc32 compiler/bin/bin/../../lib/gcc/pic32mx/8.3.1/../../../../pic32mx/lib/fpu64\libc-musl.a(__io_init_needed.o)
 .debug_frame   0x0000000000000a50       0x2c g:/embedded tools/pic/xc32 compiler/bin/bin/../../lib/gcc/pic32mx/8.3.1/../../../../pic32mx/lib/fpu64\libc-musl.a(__io_rw_needed.o)
 .debug_frame   0x0000000000000a7c       0x50 g:/embedded tools/pic/xc32 compiler/bin/bin/../../lib/gcc/pic32mx/8.3.1/../../../../pic32mx/lib/fpu64\libc-musl.a(__out.o)
 .debug_frame   0x0000000000000acc       0x50 g:/embedded tools/pic/xc32 compiler/bin/bin/../../lib/gcc/pic32mx/8.3.1/../../../../pic32mx/lib/fpu64\libc-musl.a(__stdio_close.o)
 .debug_frame   0x0000000000000b1c       0x34 g:/embedded tools/pic/xc32 compiler/bin/bin/../../lib/gcc/pic32mx/8.3.1/../../../../pic32mx/lib/fpu64\libc-musl.a(__stdio_read.o)
 .debug_frame   0x0000000000000b50       0x20 g:/embedded tools/pic/xc32 compiler/bin/bin/../../lib/gcc/pic32mx/8.3.1/../../../../pic32mx/lib/fpu64\libc-musl.a(__towrite_rw.o)
 .debug_frame   0x0000000000000b70       0x50 g:/embedded tools/pic/xc32 compiler/bin/bin/../../lib/gcc/pic32mx/8.3.1/../../../../pic32mx/lib/fpu64\libc-musl.a(fwrite.o)
 .debug_frame   0x0000000000000bc0       0x64 g:/embedded tools/pic/xc32 compiler/bin/bin/../../lib/gcc/pic32mx/8.3.1/../../../../pic32mx/lib/fpu64\libc-musl.a(putc.o)
 .debug_frame   0x0000000000000c24       0x50 g:/embedded tools/pic/xc32 compiler/bin/bin/../../lib/gcc/pic32mx/8.3.1/../../../../pic32mx/lib/fpu64\libc-musl.a(setvbuf.o)
 .debug_frame   0x0000000000000c74       0x20 g:/embedded tools/pic/xc32 compiler/bin/bin/../../lib/gcc/pic32mx/8.3.1/../../../../pic32mx/lib/fpu64\libc-musl.a(memcpy.o)
 .debug_frame   0x0000000000000c94       0x20 g:/embedded tools/pic/xc32 compiler/bin/bin/../../lib/gcc/pic32mx/8.3.1/../../../../pic32mx/lib/fpu64\libc-musl.a(strlen.o)
 .debug_frame   0x0000000000000cb4       0x38 g:/embedded tools/pic/xc32 compiler/bin/bin/../../lib/gcc/pic32mx/8.3.1/../../../../pic32mx/lib/fpu64\libc-musl.a(readv.o)
 .debug_frame   0x0000000000000cec      0x168 g:/embedded tools/pic/xc32 compiler/bin/bin/../../lib/gcc/pic32mx/8.3.1/../../../../pic32mx/lib/fpu64\libc-musl.a(malloc.o)
 .debug_frame   0x0000000000000e54       0x2c g:/embedded tools/pic/xc32 compiler/bin/bin/../../lib/gcc/pic32mx/8.3.1/../../../../pic32mx/lib/fpu64\libc-musl.a(expand_heap.o)
 .debug_frame   0x0000000000000e80       0x2c g:/embedded tools/pic/xc32 compiler/bin/bin/../../lib/gcc/pic32mx/8.3.1/../../../../pic32mx/lib/fpu64\libc-musl.a(__fopen_rw.o)
 .debug_frame   0x0000000000000eac       0x20 g:/embedded tools/pic/xc32 compiler/bin/bin/../../lib/gcc/pic32mx/8.3.1/../../../../pic32mx/lib/fpu64\libc-musl.a(__ftello_rw.o)
 .debug_frame   0x0000000000000ecc       0x3c g:/embedded tools/pic/xc32 compiler/bin/bin/../../lib/gcc/pic32mx/8.3.1/../../../../pic32mx/lib/fpu64\libc-musl.a(__init_stdio.o)
 .debug_frame   0x0000000000000f08       0x2c g:/embedded tools/pic/xc32 compiler/bin/bin/../../lib/gcc/pic32mx/8.3.1/../../../../pic32mx/lib/fpu64\libc-musl.a(__io_buf_needed.o)
 .debug_frame   0x0000000000000f34       0x2c g:/embedded tools/pic/xc32 compiler/bin/bin/../../lib/gcc/pic32mx/8.3.1/../../../../pic32mx/lib/fpu64\libc-musl.a(__io_file_needed.o)
 .debug_frame   0x0000000000000f60       0x2c g:/embedded tools/pic/xc32 compiler/bin/bin/../../lib/gcc/pic32mx/8.3.1/../../../../pic32mx/lib/fpu64\libc-musl.a(__io_std_needed.o)
 .debug_frame   0x0000000000000f8c       0x2c g:/embedded tools/pic/xc32 compiler/bin/bin/../../lib/gcc/pic32mx/8.3.1/../../../../pic32mx/lib/fpu64\libc-musl.a(__putc.o)
 .debug_frame   0x0000000000000fb8       0x4c g:/embedded tools/pic/xc32 compiler/bin/bin/../../lib/gcc/pic32mx/8.3.1/../../../../pic32mx/lib/fpu64\libc-musl.a(__stderr.o)
 .debug_frame   0x0000000000001004       0x4c g:/embedded tools/pic/xc32 compiler/bin/bin/../../lib/gcc/pic32mx/8.3.1/../../../../pic32mx/lib/fpu64\libc-musl.a(__stdio_exit.o)
 .debug_frame   0x0000000000001050       0x5c g:/embedded tools/pic/xc32 compiler/bin/bin/../../lib/gcc/pic32mx/8.3.1/../../../../pic32mx/lib/fpu64\libc-musl.a(__stdio_write.o)
 .debug_frame   0x00000000000010ac       0x4c g:/embedded tools/pic/xc32 compiler/bin/bin/../../lib/gcc/pic32mx/8.3.1/../../../../pic32mx/lib/fpu64\libc-musl.a(__stdout.o)
 .debug_frame   0x00000000000010f8       0x3c g:/embedded tools/pic/xc32 compiler/bin/bin/../../lib/gcc/pic32mx/8.3.1/../../../../pic32mx/lib/fpu64\libc-musl.a(__towrite.o)
 .debug_frame   0x0000000000001134       0x20 g:/embedded tools/pic/xc32 compiler/bin/bin/../../lib/gcc/pic32mx/8.3.1/../../../../pic32mx/lib/fpu64\libc-musl.a(memset.o)
 .debug_frame   0x0000000000001154       0x38 g:/embedded tools/pic/xc32 compiler/bin/bin/../../lib/gcc/pic32mx/8.3.1/../../../../pic32mx/lib/fpu64\libc-musl.a(writev.o)
 .debug_frame   0x000000000000118c       0x30 g:/embedded tools/pic/xc32 compiler/bin/bin/../../lib/gcc/pic32mx/8.3.1/../../../../pic32mx/lib/fpu64\libc-musl.a(__overflow.o)
 .debug_frame   0x00000000000011bc       0x2c g:/embedded tools/pic/xc32 compiler/bin/bin/../../lib/gcc/pic32mx/8.3.1/../../../../pic32mx/lib/fpu64\libc-musl.a(__fclose.o)
 .debug_frame   0x00000000000011e8       0x58 g:/embedded tools/pic/xc32 compiler/bin/bin/../../lib/gcc/pic32mx/8.3.1/../../../../pic32mx/lib/fpu64\libc-musl.a(__fopen.o)
 .debug_frame   0x0000000000001240       0x2c g:/embedded tools/pic/xc32 compiler/bin/bin/../../lib/gcc/pic32mx/8.3.1/../../../../pic32mx/lib/fpu64\libc-musl.a(__fseeko.o)
 .debug_frame   0x000000000000126c       0x3c g:/embedded tools/pic/xc32 compiler/bin/bin/../../lib/gcc/pic32mx/8.3.1/../../../../pic32mx/lib/fpu64\libc-musl.a(__ftello.o)
 .debug_frame   0x00000000000012a8       0x48 g:/embedded tools/pic/xc32 compiler/bin/bin/../../lib/gcc/pic32mx/8.3.1/../../../../pic32mx/lib/fpu64\libc-musl.a(__fwrite.o)
 .debug_frame   0x00000000000012f0       0x20 g:/embedded tools/pic/xc32 compiler/bin/bin/../../lib/gcc/pic32mx/8.3.1/fpu64\libgcc.a(_lshrdi3.o)
 .debug_frame   0x0000000000001310       0x20 g:/embedded tools/pic/xc32 compiler/bin/bin/../../lib/gcc/pic32mx/8.3.1/fpu64\libgcc.a(_ashldi3.o)
 .debug_frame   0x0000000000001330       0x9c g:/embedded tools/pic/xc32 compiler/bin/bin/../../lib/gcc/pic32mx/8.3.1/../../../../pic32mx/lib/fpu64\libpic32.a(sbrk.o)
 .debug_frame   0x00000000000013cc       0x20 g:/embedded tools/pic/xc32 compiler/bin/bin/../../lib/gcc/pic32mx/8.3.1/../../../../pic32mx/lib/fpu64\libpic32.a(lseek.o)
 .debug_frame   0x00000000000013ec       0x20 g:/embedded tools/pic/xc32 compiler/bin/bin/../../lib/gcc/pic32mx/8.3.1/../../../../pic32mx/lib/fpu64\libpic32.a(close.o)

.debug_str      0x0000000000000000     0xf225
 *.elf(.debug_str)
 *(.debug_str)
 .debug_str     0x0000000000000000      0x3d5 build/default/production/_ext/60165520/plib_clk.o
 .debug_str     0x00000000000003d5      0x442 build/default/production/_ext/1865200349/plib_evic.o
 .debug_str     0x0000000000000817      0x6ce build/default/production/_ext/1865254177/plib_gpio.o
 .debug_str     0x0000000000000ee5      0x538 build/default/production/_ext/1865657120/plib_uart1.o
 .debug_str     0x000000000000141d      0x33c build/default/production/_ext/163028504/xc32_monitor.o
 .debug_str     0x0000000000001759      0x373 build/default/production/_ext/1171490990/interrupts.o
 .debug_str     0x0000000000001acc      0x44b build/default/production/_ext/1171490990/initialization.o
 .debug_str     0x0000000000001f17      0x34a build/default/production/_ext/1171490990/exceptions.o
 .debug_str     0x0000000000002261      0x4c9 build/default/production/_ext/1360937237/main.o
 .debug_str     0x000000000000272a      0x4db build/default/production/_ext/1249264884/plib_coretimer.o
 .debug_str     0x0000000000002c05      0x516 build/default/production/_ext/60181895/plib_tmr3.o
 .debug_str     0x000000000000311b      0x519 build/default/production/_ext/1865638794/plib_tmr1.o
 .debug_str     0x0000000000003634      0x355 g:/embedded tools/pic/xc32 compiler/bin/bin/../../lib/gcc/pic32mx/8.3.1/../../../../pic32mx/lib/fpu64\libpic32.a(default-on-reset.o)
 .debug_str     0x0000000000003989      0x35d g:/embedded tools/pic/xc32 compiler/bin/bin/../../lib/gcc/pic32mx/8.3.1/../../../../pic32mx/lib/fpu64\libpic32.a(default-on-bootstrap.o)
 .debug_str     0x0000000000003ce6      0x36f g:/embedded tools/pic/xc32 compiler/bin/bin/../../lib/gcc/pic32mx/8.3.1/../../../../pic32mx/lib/fpu64\libpic32.a(defaultinterrupt.o)
 .debug_str     0x0000000000004055      0x463 g:/embedded tools/pic/xc32 compiler/bin/bin/../../lib/gcc/pic32mx/8.3.1/../../../../pic32mx/lib/fpu64\libc-musl.a(stdin.o)
 .debug_str     0x00000000000044b8      0x487 g:/embedded tools/pic/xc32 compiler/bin/bin/../../lib/gcc/pic32mx/8.3.1/../../../../pic32mx/lib/fpu64\libc-musl.a(stdout.o)
 .debug_str     0x000000000000493f      0x431 g:/embedded tools/pic/xc32 compiler/bin/bin/../../lib/gcc/pic32mx/8.3.1/../../../../pic32mx/lib/fpu64\libc-musl.a(puts.o)
 .debug_str     0x0000000000004d70      0x31c g:/embedded tools/pic/xc32 compiler/bin/bin/../../lib/gcc/pic32mx/8.3.1/../../../../pic32mx/lib/fpu64\libc-musl.a(setbuf.o)
 .debug_str     0x000000000000508c      0x425 g:/embedded tools/pic/xc32 compiler/bin/bin/../../lib/gcc/pic32mx/8.3.1/../../../../pic32mx/lib/fpu64\libc-musl.a(fputs.o)
 .debug_str     0x00000000000054b1      0x3c1 g:/embedded tools/pic/xc32 compiler/bin/bin/../../lib/gcc/pic32mx/8.3.1/../../../../pic32mx/lib/fpu64\libc-musl.a(__io_init_needed.o)
 .debug_str     0x0000000000005872      0x3d0 g:/embedded tools/pic/xc32 compiler/bin/bin/../../lib/gcc/pic32mx/8.3.1/../../../../pic32mx/lib/fpu64\libc-musl.a(__io_rw_needed.o)
 .debug_str     0x0000000000005c42      0x3c7 g:/embedded tools/pic/xc32 compiler/bin/bin/../../lib/gcc/pic32mx/8.3.1/../../../../pic32mx/lib/fpu64\libc-musl.a(__out.o)
 .debug_str     0x0000000000006009      0x44a g:/embedded tools/pic/xc32 compiler/bin/bin/../../lib/gcc/pic32mx/8.3.1/../../../../pic32mx/lib/fpu64\libc-musl.a(__stdio_close.o)
 .debug_str     0x0000000000006453      0x44f g:/embedded tools/pic/xc32 compiler/bin/bin/../../lib/gcc/pic32mx/8.3.1/../../../../pic32mx/lib/fpu64\libc-musl.a(__stdio_read.o)
 .debug_str     0x00000000000068a2      0x42a g:/embedded tools/pic/xc32 compiler/bin/bin/../../lib/gcc/pic32mx/8.3.1/../../../../pic32mx/lib/fpu64\libc-musl.a(__towrite_rw.o)
 .debug_str     0x0000000000006ccc      0x3c0 g:/embedded tools/pic/xc32 compiler/bin/bin/../../lib/gcc/pic32mx/8.3.1/../../../../pic32mx/lib/fpu64\libc-musl.a(fwrite.o)
 .debug_str     0x000000000000708c      0x3d7 g:/embedded tools/pic/xc32 compiler/bin/bin/../../lib/gcc/pic32mx/8.3.1/../../../../pic32mx/lib/fpu64\libc-musl.a(putc.o)
 .debug_str     0x0000000000007463      0x3ff g:/embedded tools/pic/xc32 compiler/bin/bin/../../lib/gcc/pic32mx/8.3.1/../../../../pic32mx/lib/fpu64\libc-musl.a(setvbuf.o)
 .debug_str     0x0000000000007862      0x328 g:/embedded tools/pic/xc32 compiler/bin/bin/../../lib/gcc/pic32mx/8.3.1/../../../../pic32mx/lib/fpu64\libc-musl.a(memcpy.o)
 .debug_str     0x0000000000007b8a      0x31a g:/embedded tools/pic/xc32 compiler/bin/bin/../../lib/gcc/pic32mx/8.3.1/../../../../pic32mx/lib/fpu64\libc-musl.a(strlen.o)
 .debug_str     0x0000000000007ea4      0x34b g:/embedded tools/pic/xc32 compiler/bin/bin/../../lib/gcc/pic32mx/8.3.1/../../../../pic32mx/lib/fpu64\libc-musl.a(readv.o)
 .debug_str     0x00000000000081ef      0x593 g:/embedded tools/pic/xc32 compiler/bin/bin/../../lib/gcc/pic32mx/8.3.1/../../../../pic32mx/lib/fpu64\libc-musl.a(malloc.o)
 .debug_str     0x0000000000008782      0x392 g:/embedded tools/pic/xc32 compiler/bin/bin/../../lib/gcc/pic32mx/8.3.1/../../../../pic32mx/lib/fpu64\libc-musl.a(expand_heap.o)
 .debug_str     0x0000000000008b14      0x442 g:/embedded tools/pic/xc32 compiler/bin/bin/../../lib/gcc/pic32mx/8.3.1/../../../../pic32mx/lib/fpu64\libc-musl.a(__fopen_rw.o)
 .debug_str     0x0000000000008f56      0x42c g:/embedded tools/pic/xc32 compiler/bin/bin/../../lib/gcc/pic32mx/8.3.1/../../../../pic32mx/lib/fpu64\libc-musl.a(__ftello_rw.o)
 .debug_str     0x0000000000009382      0x387 g:/embedded tools/pic/xc32 compiler/bin/bin/../../lib/gcc/pic32mx/8.3.1/../../../../pic32mx/lib/fpu64\libc-musl.a(__init_stdio.o)
 .debug_str     0x0000000000009709      0x3fc g:/embedded tools/pic/xc32 compiler/bin/bin/../../lib/gcc/pic32mx/8.3.1/../../../../pic32mx/lib/fpu64\libc-musl.a(__io_buf_needed.o)
 .debug_str     0x0000000000009b05      0x394 g:/embedded tools/pic/xc32 compiler/bin/bin/../../lib/gcc/pic32mx/8.3.1/../../../../pic32mx/lib/fpu64\libc-musl.a(__io_file_needed.o)
 .debug_str     0x0000000000009e99      0x3f0 g:/embedded tools/pic/xc32 compiler/bin/bin/../../lib/gcc/pic32mx/8.3.1/../../../../pic32mx/lib/fpu64\libc-musl.a(__io_std_needed.o)
 .debug_str     0x000000000000a289      0x3e5 g:/embedded tools/pic/xc32 compiler/bin/bin/../../lib/gcc/pic32mx/8.3.1/../../../../pic32mx/lib/fpu64\libc-musl.a(__putc.o)
 .debug_str     0x000000000000a66e      0x45a g:/embedded tools/pic/xc32 compiler/bin/bin/../../lib/gcc/pic32mx/8.3.1/../../../../pic32mx/lib/fpu64\libc-musl.a(__stderr.o)
 .debug_str     0x000000000000aac8      0x419 g:/embedded tools/pic/xc32 compiler/bin/bin/../../lib/gcc/pic32mx/8.3.1/../../../../pic32mx/lib/fpu64\libc-musl.a(__stdio_exit.o)
 .debug_str     0x000000000000aee1      0x433 g:/embedded tools/pic/xc32 compiler/bin/bin/../../lib/gcc/pic32mx/8.3.1/../../../../pic32mx/lib/fpu64\libc-musl.a(__stdio_write.o)
 .debug_str     0x000000000000b314      0x45a g:/embedded tools/pic/xc32 compiler/bin/bin/../../lib/gcc/pic32mx/8.3.1/../../../../pic32mx/lib/fpu64\libc-musl.a(__stdout.o)
 .debug_str     0x000000000000b76e      0x3d6 g:/embedded tools/pic/xc32 compiler/bin/bin/../../lib/gcc/pic32mx/8.3.1/../../../../pic32mx/lib/fpu64\libc-musl.a(__towrite.o)
 .debug_str     0x000000000000bb44      0x314 g:/embedded tools/pic/xc32 compiler/bin/bin/../../lib/gcc/pic32mx/8.3.1/../../../../pic32mx/lib/fpu64\libc-musl.a(memset.o)
 .debug_str     0x000000000000be58      0x34e g:/embedded tools/pic/xc32 compiler/bin/bin/../../lib/gcc/pic32mx/8.3.1/../../../../pic32mx/lib/fpu64\libc-musl.a(writev.o)
 .debug_str     0x000000000000c1a6      0x434 g:/embedded tools/pic/xc32 compiler/bin/bin/../../lib/gcc/pic32mx/8.3.1/../../../../pic32mx/lib/fpu64\libc-musl.a(libc.o)
 .debug_str     0x000000000000c5da      0x42b g:/embedded tools/pic/xc32 compiler/bin/bin/../../lib/gcc/pic32mx/8.3.1/../../../../pic32mx/lib/fpu64\libc-musl.a(__overflow.o)
 .debug_str     0x000000000000ca05      0x3b6 g:/embedded tools/pic/xc32 compiler/bin/bin/../../lib/gcc/pic32mx/8.3.1/../../../../pic32mx/lib/fpu64\libc-musl.a(__fclose.o)
 .debug_str     0x000000000000cdbb      0x3f3 g:/embedded tools/pic/xc32 compiler/bin/bin/../../lib/gcc/pic32mx/8.3.1/../../../../pic32mx/lib/fpu64\libc-musl.a(__fopen.o)
 .debug_str     0x000000000000d1ae      0x3d3 g:/embedded tools/pic/xc32 compiler/bin/bin/../../lib/gcc/pic32mx/8.3.1/../../../../pic32mx/lib/fpu64\libc-musl.a(__fseeko.o)
 .debug_str     0x000000000000d581      0x3d8 g:/embedded tools/pic/xc32 compiler/bin/bin/../../lib/gcc/pic32mx/8.3.1/../../../../pic32mx/lib/fpu64\libc-musl.a(__ftello.o)
 .debug_str     0x000000000000d959      0x3ef g:/embedded tools/pic/xc32 compiler/bin/bin/../../lib/gcc/pic32mx/8.3.1/../../../../pic32mx/lib/fpu64\libc-musl.a(__fwrite.o)
 .debug_str     0x000000000000dd48      0x3ce g:/embedded tools/pic/xc32 compiler/bin/bin/../../lib/gcc/pic32mx/8.3.1/fpu64\libgcc.a(_lshrdi3.o)
 .debug_str     0x000000000000e116      0x3ce g:/embedded tools/pic/xc32 compiler/bin/bin/../../lib/gcc/pic32mx/8.3.1/fpu64\libgcc.a(_ashldi3.o)
 .debug_str     0x000000000000e4e4      0x375 g:/embedded tools/pic/xc32 compiler/bin/bin/../../lib/gcc/pic32mx/8.3.1/../../../../pic32mx/lib/fpu64\libpic32.a(sbrk.o)
 .debug_str     0x000000000000e859      0x346 g:/embedded tools/pic/xc32 compiler/bin/bin/../../lib/gcc/pic32mx/8.3.1/../../../../pic32mx/lib/fpu64\libpic32.a(lseek.o)
 .debug_str     0x000000000000eb9f      0x346 g:/embedded tools/pic/xc32 compiler/bin/bin/../../lib/gcc/pic32mx/8.3.1/../../../../pic32mx/lib/fpu64\libpic32.a(close.o)
 .debug_str     0x000000000000eee5      0x340 g:/embedded tools/pic/xc32 compiler/bin/bin/../../lib/gcc/pic32mx/8.3.1/../../../../pic32mx/lib/fpu64\libpic32.a(errno.o)

.debug_loc      0x0000000000000000     0x2f4e
 *.elf(.debug_loc)
 *(.debug_loc)
 .debug_loc     0x0000000000000000       0xc5 build/default/production/_ext/1865200349/plib_evic.o
 .debug_loc     0x00000000000000c5      0x469 build/default/production/_ext/1865254177/plib_gpio.o
 .debug_loc     0x000000000000052e      0x452 build/default/production/_ext/1865657120/plib_uart1.o
 .debug_loc     0x0000000000000980      0x1a0 build/default/production/_ext/163028504/xc32_monitor.o
 .debug_loc     0x0000000000000b20       0x25 build/default/production/_ext/1171490990/initialization.o
 .debug_loc     0x0000000000000b45      0x144 build/default/production/_ext/1360937237/main.o
 .debug_loc     0x0000000000000c89       0xc9 build/default/production/_ext/1249264884/plib_coretimer.o
 .debug_loc     0x0000000000000d52       0x15 build/default/production/_ext/60181895/plib_tmr3.o
 .debug_loc     0x0000000000000d67       0x15 build/default/production/_ext/1865638794/plib_tmr1.o
 .debug_loc     0x0000000000000d7c       0x4a g:/embedded tools/pic/xc32 compiler/bin/bin/../../lib/gcc/pic32mx/8.3.1/../../../../pic32mx/lib/fpu64\libc-musl.a(puts.o)
 .debug_loc     0x0000000000000dc6       0x4a g:/embedded tools/pic/xc32 compiler/bin/bin/../../lib/gcc/pic32mx/8.3.1/../../../../pic32mx/lib/fpu64\libc-musl.a(setbuf.o)
 .debug_loc     0x0000000000000e10       0x86 g:/embedded tools/pic/xc32 compiler/bin/bin/../../lib/gcc/pic32mx/8.3.1/../../../../pic32mx/lib/fpu64\libc-musl.a(fputs.o)
 .debug_loc     0x0000000000000e96      0x1ab g:/embedded tools/pic/xc32 compiler/bin/bin/../../lib/gcc/pic32mx/8.3.1/../../../../pic32mx/lib/fpu64\libc-musl.a(__out.o)
 .debug_loc     0x0000000000001041      0x130 g:/embedded tools/pic/xc32 compiler/bin/bin/../../lib/gcc/pic32mx/8.3.1/../../../../pic32mx/lib/fpu64\libc-musl.a(__stdio_close.o)
 .debug_loc     0x0000000000001171       0xe7 g:/embedded tools/pic/xc32 compiler/bin/bin/../../lib/gcc/pic32mx/8.3.1/../../../../pic32mx/lib/fpu64\libc-musl.a(__stdio_read.o)
 .debug_loc     0x0000000000001258      0x19f g:/embedded tools/pic/xc32 compiler/bin/bin/../../lib/gcc/pic32mx/8.3.1/../../../../pic32mx/lib/fpu64\libc-musl.a(fwrite.o)
 .debug_loc     0x00000000000013f7       0xdb g:/embedded tools/pic/xc32 compiler/bin/bin/../../lib/gcc/pic32mx/8.3.1/../../../../pic32mx/lib/fpu64\libc-musl.a(putc.o)
 .debug_loc     0x00000000000014d2      0x15f g:/embedded tools/pic/xc32 compiler/bin/bin/../../lib/gcc/pic32mx/8.3.1/../../../../pic32mx/lib/fpu64\libc-musl.a(setvbuf.o)
 .debug_loc     0x0000000000001631       0xd6 g:/embedded tools/pic/xc32 compiler/bin/bin/../../lib/gcc/pic32mx/8.3.1/../../../../pic32mx/lib/fpu64\libc-musl.a(memcpy.o)
 .debug_loc     0x0000000000001707       0x44 g:/embedded tools/pic/xc32 compiler/bin/bin/../../lib/gcc/pic32mx/8.3.1/../../../../pic32mx/lib/fpu64\libc-musl.a(strlen.o)
 .debug_loc     0x000000000000174b      0x12c g:/embedded tools/pic/xc32 compiler/bin/bin/../../lib/gcc/pic32mx/8.3.1/../../../../pic32mx/lib/fpu64\libc-musl.a(readv.o)
 .debug_loc     0x0000000000001877      0xbe0 g:/embedded tools/pic/xc32 compiler/bin/bin/../../lib/gcc/pic32mx/8.3.1/../../../../pic32mx/lib/fpu64\libc-musl.a(malloc.o)
 .debug_loc     0x0000000000002457       0x4f g:/embedded tools/pic/xc32 compiler/bin/bin/../../lib/gcc/pic32mx/8.3.1/../../../../pic32mx/lib/fpu64\libc-musl.a(expand_heap.o)
 .debug_loc     0x00000000000024a6       0x2f g:/embedded tools/pic/xc32 compiler/bin/bin/../../lib/gcc/pic32mx/8.3.1/../../../../pic32mx/lib/fpu64\libc-musl.a(__fopen_rw.o)
 .debug_loc     0x00000000000024d5       0x25 g:/embedded tools/pic/xc32 compiler/bin/bin/../../lib/gcc/pic32mx/8.3.1/../../../../pic32mx/lib/fpu64\libc-musl.a(__ftello_rw.o)
 .debug_loc     0x00000000000024fa       0x9e g:/embedded tools/pic/xc32 compiler/bin/bin/../../lib/gcc/pic32mx/8.3.1/../../../../pic32mx/lib/fpu64\libc-musl.a(__putc.o)
 .debug_loc     0x0000000000002598      0x366 g:/embedded tools/pic/xc32 compiler/bin/bin/../../lib/gcc/pic32mx/8.3.1/../../../../pic32mx/lib/fpu64\libc-musl.a(__stdio_write.o)
 .debug_loc     0x00000000000028fe       0x47 g:/embedded tools/pic/xc32 compiler/bin/bin/../../lib/gcc/pic32mx/8.3.1/../../../../pic32mx/lib/fpu64\libc-musl.a(__towrite.o)
 .debug_loc     0x0000000000002945       0xb6 g:/embedded tools/pic/xc32 compiler/bin/bin/../../lib/gcc/pic32mx/8.3.1/../../../../pic32mx/lib/fpu64\libc-musl.a(memset.o)
 .debug_loc     0x00000000000029fb      0x12c g:/embedded tools/pic/xc32 compiler/bin/bin/../../lib/gcc/pic32mx/8.3.1/../../../../pic32mx/lib/fpu64\libc-musl.a(writev.o)
 .debug_loc     0x0000000000002b27       0x9b g:/embedded tools/pic/xc32 compiler/bin/bin/../../lib/gcc/pic32mx/8.3.1/../../../../pic32mx/lib/fpu64\libc-musl.a(__overflow.o)
 .debug_loc     0x0000000000002bc2       0x64 g:/embedded tools/pic/xc32 compiler/bin/bin/../../lib/gcc/pic32mx/8.3.1/../../../../pic32mx/lib/fpu64\libc-musl.a(__fclose.o)
 .debug_loc     0x0000000000002c26       0x2f g:/embedded tools/pic/xc32 compiler/bin/bin/../../lib/gcc/pic32mx/8.3.1/../../../../pic32mx/lib/fpu64\libc-musl.a(__fopen.o)
 .debug_loc     0x0000000000002c55       0x6f g:/embedded tools/pic/xc32 compiler/bin/bin/../../lib/gcc/pic32mx/8.3.1/../../../../pic32mx/lib/fpu64\libc-musl.a(__fseeko.o)
 .debug_loc     0x0000000000002cc4       0x4a g:/embedded tools/pic/xc32 compiler/bin/bin/../../lib/gcc/pic32mx/8.3.1/../../../../pic32mx/lib/fpu64\libc-musl.a(__ftello.o)
 .debug_loc     0x0000000000002d0e       0xc6 g:/embedded tools/pic/xc32 compiler/bin/bin/../../lib/gcc/pic32mx/8.3.1/../../../../pic32mx/lib/fpu64\libc-musl.a(__fwrite.o)
 .debug_loc     0x0000000000002dd4       0x99 g:/embedded tools/pic/xc32 compiler/bin/bin/../../lib/gcc/pic32mx/8.3.1/fpu64\libgcc.a(_lshrdi3.o)
 .debug_loc     0x0000000000002e6d       0x75 g:/embedded tools/pic/xc32 compiler/bin/bin/../../lib/gcc/pic32mx/8.3.1/fpu64\libgcc.a(_ashldi3.o)
 .debug_loc     0x0000000000002ee2       0x6c g:/embedded tools/pic/xc32 compiler/bin/bin/../../lib/gcc/pic32mx/8.3.1/../../../../pic32mx/lib/fpu64\libpic32.a(sbrk.o)

.debug_macinfo
 *.elf(.debug_macinfo)
 *(.debug_macinfo)

.debug_weaknames
 *.elf(.debug_weaknames)
 *(.debug_weaknames)

.debug_funcnames
 *.elf(.debug_funcnames)
 *(.debug_funcnames)

.debug_typenames
 *.elf(.debug_typenames)
 *(.debug_typenames)

.debug_varnames
 *.elf(.debug_varnames)
 *(.debug_varnames)

.debug_pubtypes
 *.elf(.debug_pubtypes)
 *(.debug_pubtypes)

.debug_ranges   0x0000000000000000      0x860
 *.elf(.debug_ranges)
 *(.debug_ranges)
 .debug_ranges  0x0000000000000000       0x10 build/default/production/_ext/60165520/plib_clk.o
 .debug_ranges  0x0000000000000010       0x58 build/default/production/_ext/1865200349/plib_evic.o
 .debug_ranges  0x0000000000000068       0x80 build/default/production/_ext/1865254177/plib_gpio.o
 .debug_ranges  0x00000000000000e8       0x70 build/default/production/_ext/1865657120/plib_uart1.o
 .debug_ranges  0x0000000000000158       0x18 build/default/production/_ext/163028504/xc32_monitor.o
 .debug_ranges  0x0000000000000170       0x20 build/default/production/_ext/1171490990/interrupts.o
 .debug_ranges  0x0000000000000190       0x10 build/default/production/_ext/1171490990/initialization.o
 .debug_ranges  0x00000000000001a0       0x18 build/default/production/_ext/1171490990/exceptions.o
 .debug_ranges  0x00000000000001b8       0x28 build/default/production/_ext/1360937237/main.o
 .debug_ranges  0x00000000000001e0       0x50 build/default/production/_ext/1249264884/plib_coretimer.o
 .debug_ranges  0x0000000000000230       0x60 build/default/production/_ext/60181895/plib_tmr3.o
 .debug_ranges  0x0000000000000290       0x60 build/default/production/_ext/1865638794/plib_tmr1.o
 .debug_ranges  0x00000000000002f0       0x10 g:/embedded tools/pic/xc32 compiler/bin/bin/../../lib/gcc/pic32mx/8.3.1/../../../../pic32mx/lib/fpu64\libpic32.a(default-on-reset.o)
 .debug_ranges  0x0000000000000300       0x10 g:/embedded tools/pic/xc32 compiler/bin/bin/../../lib/gcc/pic32mx/8.3.1/../../../../pic32mx/lib/fpu64\libpic32.a(default-on-bootstrap.o)
 .debug_ranges  0x0000000000000310       0x10 g:/embedded tools/pic/xc32 compiler/bin/bin/../../lib/gcc/pic32mx/8.3.1/../../../../pic32mx/lib/fpu64\libpic32.a(defaultinterrupt.o)
 .debug_ranges  0x0000000000000320       0x18 g:/embedded tools/pic/xc32 compiler/bin/bin/../../lib/gcc/pic32mx/8.3.1/../../../../pic32mx/lib/fpu64\libc-musl.a(stdin.o)
 .debug_ranges  0x0000000000000338       0x20 g:/embedded tools/pic/xc32 compiler/bin/bin/../../lib/gcc/pic32mx/8.3.1/../../../../pic32mx/lib/fpu64\libc-musl.a(stdout.o)
 .debug_ranges  0x0000000000000358       0x10 g:/embedded tools/pic/xc32 compiler/bin/bin/../../lib/gcc/pic32mx/8.3.1/../../../../pic32mx/lib/fpu64\libc-musl.a(puts.o)
 .debug_ranges  0x0000000000000368       0x10 g:/embedded tools/pic/xc32 compiler/bin/bin/../../lib/gcc/pic32mx/8.3.1/../../../../pic32mx/lib/fpu64\libc-musl.a(setbuf.o)
 .debug_ranges  0x0000000000000378       0x10 g:/embedded tools/pic/xc32 compiler/bin/bin/../../lib/gcc/pic32mx/8.3.1/../../../../pic32mx/lib/fpu64\libc-musl.a(fputs.o)
 .debug_ranges  0x0000000000000388       0x18 g:/embedded tools/pic/xc32 compiler/bin/bin/../../lib/gcc/pic32mx/8.3.1/../../../../pic32mx/lib/fpu64\libc-musl.a(__io_init_needed.o)
 .debug_ranges  0x00000000000003a0       0x10 g:/embedded tools/pic/xc32 compiler/bin/bin/../../lib/gcc/pic32mx/8.3.1/../../../../pic32mx/lib/fpu64\libc-musl.a(__io_rw_needed.o)
 .debug_ranges  0x00000000000003b0       0x30 g:/embedded tools/pic/xc32 compiler/bin/bin/../../lib/gcc/pic32mx/8.3.1/../../../../pic32mx/lib/fpu64\libc-musl.a(__out.o)
 .debug_ranges  0x00000000000003e0       0x18 g:/embedded tools/pic/xc32 compiler/bin/bin/../../lib/gcc/pic32mx/8.3.1/../../../../pic32mx/lib/fpu64\libc-musl.a(__stdio_close.o)
 .debug_ranges  0x00000000000003f8       0x10 g:/embedded tools/pic/xc32 compiler/bin/bin/../../lib/gcc/pic32mx/8.3.1/../../../../pic32mx/lib/fpu64\libc-musl.a(__stdio_read.o)
 .debug_ranges  0x0000000000000408       0x10 g:/embedded tools/pic/xc32 compiler/bin/bin/../../lib/gcc/pic32mx/8.3.1/../../../../pic32mx/lib/fpu64\libc-musl.a(__towrite_rw.o)
 .debug_ranges  0x0000000000000418       0x18 g:/embedded tools/pic/xc32 compiler/bin/bin/../../lib/gcc/pic32mx/8.3.1/../../../../pic32mx/lib/fpu64\libc-musl.a(fwrite.o)
 .debug_ranges  0x0000000000000430       0x20 g:/embedded tools/pic/xc32 compiler/bin/bin/../../lib/gcc/pic32mx/8.3.1/../../../../pic32mx/lib/fpu64\libc-musl.a(putc.o)
 .debug_ranges  0x0000000000000450       0x18 g:/embedded tools/pic/xc32 compiler/bin/bin/../../lib/gcc/pic32mx/8.3.1/../../../../pic32mx/lib/fpu64\libc-musl.a(setvbuf.o)
 .debug_ranges  0x0000000000000468       0x10 g:/embedded tools/pic/xc32 compiler/bin/bin/../../lib/gcc/pic32mx/8.3.1/../../../../pic32mx/lib/fpu64\libc-musl.a(memcpy.o)
 .debug_ranges  0x0000000000000478       0x10 g:/embedded tools/pic/xc32 compiler/bin/bin/../../lib/gcc/pic32mx/8.3.1/../../../../pic32mx/lib/fpu64\libc-musl.a(strlen.o)
 .debug_ranges  0x0000000000000488       0x10 g:/embedded tools/pic/xc32 compiler/bin/bin/../../lib/gcc/pic32mx/8.3.1/../../../../pic32mx/lib/fpu64\libc-musl.a(readv.o)
 .debug_ranges  0x0000000000000498      0x1c0 g:/embedded tools/pic/xc32 compiler/bin/bin/../../lib/gcc/pic32mx/8.3.1/../../../../pic32mx/lib/fpu64\libc-musl.a(malloc.o)
 .debug_ranges  0x0000000000000658       0x10 g:/embedded tools/pic/xc32 compiler/bin/bin/../../lib/gcc/pic32mx/8.3.1/../../../../pic32mx/lib/fpu64\libc-musl.a(expand_heap.o)
 .debug_ranges  0x0000000000000668       0x10 g:/embedded tools/pic/xc32 compiler/bin/bin/../../lib/gcc/pic32mx/8.3.1/../../../../pic32mx/lib/fpu64\libc-musl.a(__fopen_rw.o)
 .debug_ranges  0x0000000000000678       0x10 g:/embedded tools/pic/xc32 compiler/bin/bin/../../lib/gcc/pic32mx/8.3.1/../../../../pic32mx/lib/fpu64\libc-musl.a(__ftello_rw.o)
 .debug_ranges  0x0000000000000688       0x18 g:/embedded tools/pic/xc32 compiler/bin/bin/../../lib/gcc/pic32mx/8.3.1/../../../../pic32mx/lib/fpu64\libc-musl.a(__init_stdio.o)
 .debug_ranges  0x00000000000006a0       0x10 g:/embedded tools/pic/xc32 compiler/bin/bin/../../lib/gcc/pic32mx/8.3.1/../../../../pic32mx/lib/fpu64\libc-musl.a(__io_buf_needed.o)
 .debug_ranges  0x00000000000006b0       0x10 g:/embedded tools/pic/xc32 compiler/bin/bin/../../lib/gcc/pic32mx/8.3.1/../../../../pic32mx/lib/fpu64\libc-musl.a(__io_file_needed.o)
 .debug_ranges  0x00000000000006c0       0x10 g:/embedded tools/pic/xc32 compiler/bin/bin/../../lib/gcc/pic32mx/8.3.1/../../../../pic32mx/lib/fpu64\libc-musl.a(__io_std_needed.o)
 .debug_ranges  0x00000000000006d0       0x10 g:/embedded tools/pic/xc32 compiler/bin/bin/../../lib/gcc/pic32mx/8.3.1/../../../../pic32mx/lib/fpu64\libc-musl.a(__putc.o)
 .debug_ranges  0x00000000000006e0       0x20 g:/embedded tools/pic/xc32 compiler/bin/bin/../../lib/gcc/pic32mx/8.3.1/../../../../pic32mx/lib/fpu64\libc-musl.a(__stderr.o)
 .debug_ranges  0x0000000000000700       0x20 g:/embedded tools/pic/xc32 compiler/bin/bin/../../lib/gcc/pic32mx/8.3.1/../../../../pic32mx/lib/fpu64\libc-musl.a(__stdio_exit.o)
 .debug_ranges  0x0000000000000720       0x18 g:/embedded tools/pic/xc32 compiler/bin/bin/../../lib/gcc/pic32mx/8.3.1/../../../../pic32mx/lib/fpu64\libc-musl.a(__stdio_write.o)
 .debug_ranges  0x0000000000000738       0x20 g:/embedded tools/pic/xc32 compiler/bin/bin/../../lib/gcc/pic32mx/8.3.1/../../../../pic32mx/lib/fpu64\libc-musl.a(__stdout.o)
 .debug_ranges  0x0000000000000758       0x18 g:/embedded tools/pic/xc32 compiler/bin/bin/../../lib/gcc/pic32mx/8.3.1/../../../../pic32mx/lib/fpu64\libc-musl.a(__towrite.o)
 .debug_ranges  0x0000000000000770       0x10 g:/embedded tools/pic/xc32 compiler/bin/bin/../../lib/gcc/pic32mx/8.3.1/../../../../pic32mx/lib/fpu64\libc-musl.a(memset.o)
 .debug_ranges  0x0000000000000780       0x10 g:/embedded tools/pic/xc32 compiler/bin/bin/../../lib/gcc/pic32mx/8.3.1/../../../../pic32mx/lib/fpu64\libc-musl.a(writev.o)
 .debug_ranges  0x0000000000000790       0x10 g:/embedded tools/pic/xc32 compiler/bin/bin/../../lib/gcc/pic32mx/8.3.1/../../../../pic32mx/lib/fpu64\libc-musl.a(__overflow.o)
 .debug_ranges  0x00000000000007a0       0x10 g:/embedded tools/pic/xc32 compiler/bin/bin/../../lib/gcc/pic32mx/8.3.1/../../../../pic32mx/lib/fpu64\libc-musl.a(__fclose.o)
 .debug_ranges  0x00000000000007b0       0x20 g:/embedded tools/pic/xc32 compiler/bin/bin/../../lib/gcc/pic32mx/8.3.1/../../../../pic32mx/lib/fpu64\libc-musl.a(__fopen.o)
 .debug_ranges  0x00000000000007d0       0x10 g:/embedded tools/pic/xc32 compiler/bin/bin/../../lib/gcc/pic32mx/8.3.1/../../../../pic32mx/lib/fpu64\libc-musl.a(__fseeko.o)
 .debug_ranges  0x00000000000007e0       0x18 g:/embedded tools/pic/xc32 compiler/bin/bin/../../lib/gcc/pic32mx/8.3.1/../../../../pic32mx/lib/fpu64\libc-musl.a(__ftello.o)
 .debug_ranges  0x00000000000007f8       0x18 g:/embedded tools/pic/xc32 compiler/bin/bin/../../lib/gcc/pic32mx/8.3.1/../../../../pic32mx/lib/fpu64\libc-musl.a(__fwrite.o)
 .debug_ranges  0x0000000000000810       0x30 g:/embedded tools/pic/xc32 compiler/bin/bin/../../lib/gcc/pic32mx/8.3.1/../../../../pic32mx/lib/fpu64\libpic32.a(sbrk.o)
 .debug_ranges  0x0000000000000840       0x10 g:/embedded tools/pic/xc32 compiler/bin/bin/../../lib/gcc/pic32mx/8.3.1/../../../../pic32mx/lib/fpu64\libpic32.a(lseek.o)
 .debug_ranges  0x0000000000000850       0x10 g:/embedded tools/pic/xc32 compiler/bin/bin/../../lib/gcc/pic32mx/8.3.1/../../../../pic32mx/lib/fpu64\libpic32.a(close.o)

.gnu.attributes
                0x0000000000000000       0x10
 *(.gnu.attributes)
 .gnu.attributes
                0x0000000000000000       0x10 g:/embedded tools/pic/xc32 compiler/bin/bin/../../lib/gcc/pic32mx/8.3.1/../../../../pic32mx/lib/fpu64\debug-exception-return.o
 .gnu.attributes
                0x0000000000000010       0x10 build/default/production/_ext/60165520/plib_clk.o
 .gnu.attributes
                0x0000000000000020       0x10 build/default/production/_ext/1865200349/plib_evic.o
 .gnu.attributes
                0x0000000000000030       0x10 build/default/production/_ext/1865254177/plib_gpio.o
 .gnu.attributes
                0x0000000000000040       0x10 build/default/production/_ext/1865657120/plib_uart1.o
 .gnu.attributes
                0x0000000000000050       0x10 build/default/production/_ext/163028504/xc32_monitor.o
 .gnu.attributes
                0x0000000000000060       0x10 build/default/production/_ext/1171490990/interrupts.o
 .gnu.attributes
                0x0000000000000070       0x10 build/default/production/_ext/1171490990/initialization.o
 .gnu.attributes
                0x0000000000000080       0x10 build/default/production/_ext/1171490990/exceptions.o
 .gnu.attributes
                0x0000000000000090       0x10 build/default/production/_ext/1360937237/main.o
 .gnu.attributes
                0x00000000000000a0       0x10 build/default/production/_ext/1249264884/plib_coretimer.o
 .gnu.attributes
                0x00000000000000b0       0x10 build/default/production/_ext/60181895/plib_tmr3.o
 .gnu.attributes
                0x00000000000000c0       0x10 build/default/production/_ext/1865638794/plib_tmr1.o
 .gnu.attributes
                0x00000000000000d0       0x10 C:\Users\HP\AppData\Local\Temp\ccSwWAzT.o
 .gnu.attributes
                0x00000000000000e0       0x10 C:\Users\HP\AppData\Local\Temp\ccozJtYY.o
 .gnu.attributes
                0x00000000000000f0       0x10 C:\Users\HP\AppData\Local\Temp\ccd7BBA2.o
 .gnu.attributes
                0x0000000000000100       0x10 C:\Users\HP\AppData\Local\Temp\cc2iFMcc.o
 .gnu.attributes
                0x0000000000000110       0x10 g:/embedded tools/pic/xc32 compiler/bin/bin/../../lib/gcc/pic32mx/8.3.1/../../../../pic32mx/lib/fpu64\pic32_software_reset.o
 .gnu.attributes
                0x0000000000000120       0x10 g:/embedded tools/pic/xc32 compiler/bin/bin/../../lib/gcc/pic32mx/8.3.1/../../../../pic32mx/lib/fpu64\libpic32.a(default-on-reset.o)
 .gnu.attributes
                0x0000000000000130       0x10 g:/embedded tools/pic/xc32 compiler/bin/bin/../../lib/gcc/pic32mx/8.3.1/../../../../pic32mx/lib/fpu64\libpic32.a(default-on-bootstrap.o)
 .gnu.attributes
                0x0000000000000140       0x10 g:/embedded tools/pic/xc32 compiler/bin/bin/../../lib/gcc/pic32mx/8.3.1/../../../../pic32mx/lib/fpu64\libpic32.a(default-nmi-handler.o)
 .gnu.attributes
                0x0000000000000150       0x10 g:/embedded tools/pic/xc32 compiler/bin/bin/../../lib/gcc/pic32mx/8.3.1/../../../../pic32mx/lib/fpu64\libpic32.a(pic32_data_init_core.o)
 .gnu.attributes
                0x0000000000000160       0x10 g:/embedded tools/pic/xc32 compiler/bin/bin/../../lib/gcc/pic32mx/8.3.1/../../../../pic32mx/lib/fpu64\libpic32.a(general-exception.o)
 .gnu.attributes
                0x0000000000000170       0x10 g:/embedded tools/pic/xc32 compiler/bin/bin/../../lib/gcc/pic32mx/8.3.1/../../../../pic32mx/lib/fpu64\libpic32.a(defaultinterrupt.o)
 .gnu.attributes
                0x0000000000000180       0x10 g:/embedded tools/pic/xc32 compiler/bin/bin/../../lib/gcc/pic32mx/8.3.1/../../../../pic32mx/lib/fpu64\libc-musl.a(stdin.o)
 .gnu.attributes
                0x0000000000000190       0x10 g:/embedded tools/pic/xc32 compiler/bin/bin/../../lib/gcc/pic32mx/8.3.1/../../../../pic32mx/lib/fpu64\libc-musl.a(stdout.o)
 .gnu.attributes
                0x00000000000001a0       0x10 g:/embedded tools/pic/xc32 compiler/bin/bin/../../lib/gcc/pic32mx/8.3.1/../../../../pic32mx/lib/fpu64\libc-musl.a(puts.o)
 .gnu.attributes
                0x00000000000001b0       0x10 g:/embedded tools/pic/xc32 compiler/bin/bin/../../lib/gcc/pic32mx/8.3.1/../../../../pic32mx/lib/fpu64\libc-musl.a(setbuf.o)
 .gnu.attributes
                0x00000000000001c0       0x10 g:/embedded tools/pic/xc32 compiler/bin/bin/../../lib/gcc/pic32mx/8.3.1/../../../../pic32mx/lib/fpu64\libc-musl.a(fputs.o)
 .gnu.attributes
                0x00000000000001d0       0x10 g:/embedded tools/pic/xc32 compiler/bin/bin/../../lib/gcc/pic32mx/8.3.1/../../../../pic32mx/lib/fpu64\libc-musl.a(__io_init_needed.o)
 .gnu.attributes
                0x00000000000001e0       0x10 g:/embedded tools/pic/xc32 compiler/bin/bin/../../lib/gcc/pic32mx/8.3.1/../../../../pic32mx/lib/fpu64\libc-musl.a(__io_rw_needed.o)
 .gnu.attributes
                0x00000000000001f0       0x10 g:/embedded tools/pic/xc32 compiler/bin/bin/../../lib/gcc/pic32mx/8.3.1/../../../../pic32mx/lib/fpu64\libc-musl.a(__out.o)
 .gnu.attributes
                0x0000000000000200       0x10 g:/embedded tools/pic/xc32 compiler/bin/bin/../../lib/gcc/pic32mx/8.3.1/../../../../pic32mx/lib/fpu64\libc-musl.a(__stdio_close.o)
 .gnu.attributes
                0x0000000000000210       0x10 g:/embedded tools/pic/xc32 compiler/bin/bin/../../lib/gcc/pic32mx/8.3.1/../../../../pic32mx/lib/fpu64\libc-musl.a(__stdio_read.o)
 .gnu.attributes
                0x0000000000000220       0x10 g:/embedded tools/pic/xc32 compiler/bin/bin/../../lib/gcc/pic32mx/8.3.1/../../../../pic32mx/lib/fpu64\libc-musl.a(__towrite_rw.o)
 .gnu.attributes
                0x0000000000000230       0x10 g:/embedded tools/pic/xc32 compiler/bin/bin/../../lib/gcc/pic32mx/8.3.1/../../../../pic32mx/lib/fpu64\libc-musl.a(fwrite.o)
 .gnu.attributes
                0x0000000000000240       0x10 g:/embedded tools/pic/xc32 compiler/bin/bin/../../lib/gcc/pic32mx/8.3.1/../../../../pic32mx/lib/fpu64\libc-musl.a(putc.o)
 .gnu.attributes
                0x0000000000000250       0x10 g:/embedded tools/pic/xc32 compiler/bin/bin/../../lib/gcc/pic32mx/8.3.1/../../../../pic32mx/lib/fpu64\libc-musl.a(setvbuf.o)
 .gnu.attributes
                0x0000000000000260       0x10 g:/embedded tools/pic/xc32 compiler/bin/bin/../../lib/gcc/pic32mx/8.3.1/../../../../pic32mx/lib/fpu64\libc-musl.a(memcpy.o)
 .gnu.attributes
                0x0000000000000270       0x10 g:/embedded tools/pic/xc32 compiler/bin/bin/../../lib/gcc/pic32mx/8.3.1/../../../../pic32mx/lib/fpu64\libc-musl.a(strlen.o)
 .gnu.attributes
                0x0000000000000280       0x10 g:/embedded tools/pic/xc32 compiler/bin/bin/../../lib/gcc/pic32mx/8.3.1/../../../../pic32mx/lib/fpu64\libc-musl.a(readv.o)
 .gnu.attributes
                0x0000000000000290       0x10 g:/embedded tools/pic/xc32 compiler/bin/bin/../../lib/gcc/pic32mx/8.3.1/../../../../pic32mx/lib/fpu64\libc-musl.a(malloc.o)
 .gnu.attributes
                0x00000000000002a0       0x10 g:/embedded tools/pic/xc32 compiler/bin/bin/../../lib/gcc/pic32mx/8.3.1/../../../../pic32mx/lib/fpu64\libc-musl.a(expand_heap.o)
 .gnu.attributes
                0x00000000000002b0       0x10 g:/embedded tools/pic/xc32 compiler/bin/bin/../../lib/gcc/pic32mx/8.3.1/../../../../pic32mx/lib/fpu64\libc-musl.a(__fopen_rw.o)
 .gnu.attributes
                0x00000000000002c0       0x10 g:/embedded tools/pic/xc32 compiler/bin/bin/../../lib/gcc/pic32mx/8.3.1/../../../../pic32mx/lib/fpu64\libc-musl.a(__ftello_rw.o)
 .gnu.attributes
                0x00000000000002d0       0x10 g:/embedded tools/pic/xc32 compiler/bin/bin/../../lib/gcc/pic32mx/8.3.1/../../../../pic32mx/lib/fpu64\libc-musl.a(__init_stdio.o)
 .gnu.attributes
                0x00000000000002e0       0x10 g:/embedded tools/pic/xc32 compiler/bin/bin/../../lib/gcc/pic32mx/8.3.1/../../../../pic32mx/lib/fpu64\libc-musl.a(__io_buf_needed.o)
 .gnu.attributes
                0x00000000000002f0       0x10 g:/embedded tools/pic/xc32 compiler/bin/bin/../../lib/gcc/pic32mx/8.3.1/../../../../pic32mx/lib/fpu64\libc-musl.a(__io_file_needed.o)
 .gnu.attributes
                0x0000000000000300       0x10 g:/embedded tools/pic/xc32 compiler/bin/bin/../../lib/gcc/pic32mx/8.3.1/../../../../pic32mx/lib/fpu64\libc-musl.a(__io_std_needed.o)
 .gnu.attributes
                0x0000000000000310       0x10 g:/embedded tools/pic/xc32 compiler/bin/bin/../../lib/gcc/pic32mx/8.3.1/../../../../pic32mx/lib/fpu64\libc-musl.a(__putc.o)
 .gnu.attributes
                0x0000000000000320       0x10 g:/embedded tools/pic/xc32 compiler/bin/bin/../../lib/gcc/pic32mx/8.3.1/../../../../pic32mx/lib/fpu64\libc-musl.a(__stderr.o)
 .gnu.attributes
                0x0000000000000330       0x10 g:/embedded tools/pic/xc32 compiler/bin/bin/../../lib/gcc/pic32mx/8.3.1/../../../../pic32mx/lib/fpu64\libc-musl.a(__stdio_exit.o)
 .gnu.attributes
                0x0000000000000340       0x10 g:/embedded tools/pic/xc32 compiler/bin/bin/../../lib/gcc/pic32mx/8.3.1/../../../../pic32mx/lib/fpu64\libc-musl.a(__stdio_write.o)
 .gnu.attributes
                0x0000000000000350       0x10 g:/embedded tools/pic/xc32 compiler/bin/bin/../../lib/gcc/pic32mx/8.3.1/../../../../pic32mx/lib/fpu64\libc-musl.a(__stdout.o)
 .gnu.attributes
                0x0000000000000360       0x10 g:/embedded tools/pic/xc32 compiler/bin/bin/../../lib/gcc/pic32mx/8.3.1/../../../../pic32mx/lib/fpu64\libc-musl.a(__towrite.o)
 .gnu.attributes
                0x0000000000000370       0x10 g:/embedded tools/pic/xc32 compiler/bin/bin/../../lib/gcc/pic32mx/8.3.1/../../../../pic32mx/lib/fpu64\libc-musl.a(memset.o)
 .gnu.attributes
                0x0000000000000380       0x10 g:/embedded tools/pic/xc32 compiler/bin/bin/../../lib/gcc/pic32mx/8.3.1/../../../../pic32mx/lib/fpu64\libc-musl.a(writev.o)
 .gnu.attributes
                0x0000000000000390       0x10 g:/embedded tools/pic/xc32 compiler/bin/bin/../../lib/gcc/pic32mx/8.3.1/../../../../pic32mx/lib/fpu64\libc-musl.a(libc.o)
 .gnu.attributes
                0x00000000000003a0       0x10 g:/embedded tools/pic/xc32 compiler/bin/bin/../../lib/gcc/pic32mx/8.3.1/../../../../pic32mx/lib/fpu64\libc-musl.a(__overflow.o)
 .gnu.attributes
                0x00000000000003b0       0x10 g:/embedded tools/pic/xc32 compiler/bin/bin/../../lib/gcc/pic32mx/8.3.1/../../../../pic32mx/lib/fpu64\libc-musl.a(__fclose.o)
 .gnu.attributes
                0x00000000000003c0       0x10 g:/embedded tools/pic/xc32 compiler/bin/bin/../../lib/gcc/pic32mx/8.3.1/../../../../pic32mx/lib/fpu64\libc-musl.a(__fopen.o)
 .gnu.attributes
                0x00000000000003d0       0x10 g:/embedded tools/pic/xc32 compiler/bin/bin/../../lib/gcc/pic32mx/8.3.1/../../../../pic32mx/lib/fpu64\libc-musl.a(__fseeko.o)
 .gnu.attributes
                0x00000000000003e0       0x10 g:/embedded tools/pic/xc32 compiler/bin/bin/../../lib/gcc/pic32mx/8.3.1/../../../../pic32mx/lib/fpu64\libc-musl.a(__ftello.o)
 .gnu.attributes
                0x00000000000003f0       0x10 g:/embedded tools/pic/xc32 compiler/bin/bin/../../lib/gcc/pic32mx/8.3.1/../../../../pic32mx/lib/fpu64\libc-musl.a(__fwrite.o)
 .gnu.attributes
                0x0000000000000400       0x10 g:/embedded tools/pic/xc32 compiler/bin/bin/../../lib/gcc/pic32mx/8.3.1/fpu64\libgcc.a(_lshrdi3.o)
 .gnu.attributes
                0x0000000000000410       0x10 g:/embedded tools/pic/xc32 compiler/bin/bin/../../lib/gcc/pic32mx/8.3.1/fpu64\libgcc.a(_ashldi3.o)
 .gnu.attributes
                0x0000000000000420       0x10 g:/embedded tools/pic/xc32 compiler/bin/bin/../../lib/gcc/pic32mx/8.3.1/../../../../pic32mx/lib/fpu64\libpic32.a(sbrk.o)
 .gnu.attributes
                0x0000000000000430       0x10 g:/embedded tools/pic/xc32 compiler/bin/bin/../../lib/gcc/pic32mx/8.3.1/../../../../pic32mx/lib/fpu64\libpic32.a(lseek.o)
 .gnu.attributes
                0x0000000000000440       0x10 g:/embedded tools/pic/xc32 compiler/bin/bin/../../lib/gcc/pic32mx/8.3.1/../../../../pic32mx/lib/fpu64\libpic32.a(close.o)
 .gnu.attributes
                0x0000000000000450       0x10 g:/embedded tools/pic/xc32 compiler/bin/bin/../../lib/gcc/pic32mx/8.3.1/../../../../pic32mx/lib/fpu64\libpic32.a(errno.o)
 .gnu.attributes
                0x0000000000000460       0x10 g:/embedded tools/pic/xc32 compiler/bin/bin/../../lib/gcc/pic32mx/8.3.1/../../../../pic32mx/lib/fpu64\libpic32.a(pic32_data_init_clear.o)
 .gnu.attributes
                0x0000000000000470       0x10 g:/embedded tools/pic/xc32 compiler/bin/bin/../../lib/gcc/pic32mx/8.3.1/../../../../pic32mx/lib/fpu64\libpic32.a(pic32_data_init_copy.o)
                0x0000000000000200                _min_heap_size = 0x200
LOAD C:\Users\HP\AppData\Local\Temp\ccSwWAzT.o
LOAD C:\Users\HP\AppData\Local\Temp\ccozJtYY.o
LOAD C:\Users\HP\AppData\Local\Temp\ccd7BBA2.o
LOAD C:\Users\HP\AppData\Local\Temp\cc2iFMcc.o
LOAD g:/embedded tools/pic/xc32 compiler/bin/bin/../../lib/gcc/pic32mx/8.3.1/../../../../pic32mx/lib/fpu64\pic32_software_reset.o
LOAD g:/embedded tools/pic/xc32 compiler/bin/bin/../../lib/gcc/pic32mx/8.3.1/fpu64\libgcc.a
START GROUP
LOAD g:/embedded tools/pic/xc32 compiler/bin/bin/../../lib/gcc/pic32mx/8.3.1/../../../../pic32mx/lib/fpu64\libpic32.a
LOAD g:/embedded tools/pic/xc32 compiler/bin/bin/../../lib/gcc/pic32mx/8.3.1/../../../../pic32mx/lib/fpu64\libdebug.a
LOAD g:/embedded tools/pic/xc32 compiler/bin/bin/../../lib/gcc/pic32mx/8.3.1/../../../../pic32mx/lib/fpu64\libc-musl.a
LOAD g:/embedded tools/pic/xc32 compiler/bin/bin/../../lib/gcc/pic32mx/8.3.1/../../../../pic32mx/lib/fpu64\libm-musl.a
LOAD g:/embedded tools/pic/xc32 compiler/bin/bin/../../lib/gcc/pic32mx/8.3.1/../../../../pic32mx/lib/fpu64\libdspr2.a
LOAD g:/embedded tools/pic/xc32 compiler/bin/bin/../../lib/gcc/pic32mx/8.3.1/../../../../pic32mx/lib/fpu64\libdsp.a
LOAD g:/embedded tools/pic/xc32 compiler/bin/bin/../../lib/gcc/pic32mx/8.3.1/fpu64\libgcc.a
END GROUP
LOAD g:/embedded tools/pic/xc32 compiler/bin/bin/../../lib/gcc/pic32mx/8.3.1/fpu64\libgcc.a
OUTPUT(dist/default/production/button_debounce.X.production.elf elf32-tradlittlemips)
LOAD data_init
LOAD stack

.reginfo        0x0000000000000000       0x18
 .reginfo       0x0000000000000000       0x18 g:/embedded tools/pic/xc32 compiler/bin/bin/../../lib/gcc/pic32mx/8.3.1/../../../../pic32mx/lib/fpu64\debug-exception-return.o

__xc_reference_data
                0x0000000000000000      0x2b4
 __xc_reference_data
                0x0000000000000000       0x24 g:/embedded tools/pic/xc32 compiler/bin/bin/../../lib/gcc/pic32mx/8.3.1/../../../../pic32mx/lib/fpu64\libc-musl.a(stdin.o)
                0x0000000000000000                __stdin_needs_rw
 __xc_reference_data
                0x0000000000000024       0x24 g:/embedded tools/pic/xc32 compiler/bin/bin/../../lib/gcc/pic32mx/8.3.1/../../../../pic32mx/lib/fpu64\libc-musl.a(stdout.o)
                0x0000000000000024                __stdout_needs_init
 __xc_reference_data
                0x0000000000000048       0x48 g:/embedded tools/pic/xc32 compiler/bin/bin/../../lib/gcc/pic32mx/8.3.1/../../../../pic32mx/lib/fpu64\libc-musl.a(__io_init_needed.o)
                0x0000000000000048                __io_init_needed
                0x000000000000006c                __io_init_needs_file
 __xc_reference_data
                0x0000000000000090       0x54 g:/embedded tools/pic/xc32 compiler/bin/bin/../../lib/gcc/pic32mx/8.3.1/../../../../pic32mx/lib/fpu64\libc-musl.a(__io_rw_needed.o)
                0x0000000000000090                __io_rw_needed
 __xc_reference_data
                0x00000000000000e4       0x24 g:/embedded tools/pic/xc32 compiler/bin/bin/../../lib/gcc/pic32mx/8.3.1/../../../../pic32mx/lib/fpu64\libc-musl.a(putc.o)
                0x00000000000000e4                __putc_needs_out
 __xc_reference_data
                0x0000000000000108       0x24 g:/embedded tools/pic/xc32 compiler/bin/bin/../../lib/gcc/pic32mx/8.3.1/../../../../pic32mx/lib/fpu64\libc-musl.a(setvbuf.o)
                0x0000000000000108                __setvbuf_needs_buf
 __xc_reference_data
                0x000000000000012c       0x84 g:/embedded tools/pic/xc32 compiler/bin/bin/../../lib/gcc/pic32mx/8.3.1/../../../../pic32mx/lib/fpu64\libc-musl.a(__io_buf_needed.o)
                0x000000000000012c                __io_buf_needed
 __xc_reference_data
                0x00000000000001b0       0x24 g:/embedded tools/pic/xc32 compiler/bin/bin/../../lib/gcc/pic32mx/8.3.1/../../../../pic32mx/lib/fpu64\libc-musl.a(__io_file_needed.o)
                0x00000000000001b0                __io_file_needed
 __xc_reference_data
                0x00000000000001d4       0x74 g:/embedded tools/pic/xc32 compiler/bin/bin/../../lib/gcc/pic32mx/8.3.1/../../../../pic32mx/lib/fpu64\libc-musl.a(__io_std_needed.o)
                0x00000000000001d4                __io_std_needed
 __xc_reference_data
                0x0000000000000248       0x24 g:/embedded tools/pic/xc32 compiler/bin/bin/../../lib/gcc/pic32mx/8.3.1/../../../../pic32mx/lib/fpu64\libc-musl.a(__stderr.o)
                0x0000000000000248                __stderr_needs_file
 __xc_reference_data
                0x000000000000026c       0x24 g:/embedded tools/pic/xc32 compiler/bin/bin/../../lib/gcc/pic32mx/8.3.1/../../../../pic32mx/lib/fpu64\libc-musl.a(__stdout.o)
                0x000000000000026c                __stdout_needs_file
 __xc_reference_data
                0x0000000000000290       0x24 g:/embedded tools/pic/xc32 compiler/bin/bin/../../lib/gcc/pic32mx/8.3.1/../../../../pic32mx/lib/fpu64\libc-musl.a(__fwrite.o)
                0x0000000000000290                __fwrite_needs_std

.stack          0x00000000800009b0      0x400
 .stack         0x00000000800009b0      0x400 stack

.__vector_offset_BF8106B8_data
                0x00000000bf8106b8       0x80
 .__vector_offset_BF8106B8_data
                0x00000000bf8106b8       0x80 C:\Users\HP\AppData\Local\Temp\ccd7BBA2.o

.__vector_offset_BF810540_data
                0x00000000bf810540       0x70
 .__vector_offset_BF810540_data
                0x00000000bf810540       0x70 C:\Users\HP\AppData\Local\Temp\ccd7BBA2.o

.__vector_offset_BF81065C_data
                0x00000000bf81065c       0x58
 .__vector_offset_BF81065C_data
                0x00000000bf81065c       0x58 C:\Users\HP\AppData\Local\Temp\ccd7BBA2.o

.__vector_offset_BF8105CC_data
                0x00000000bf8105cc       0x40
 .__vector_offset_BF8105CC_data
                0x00000000bf8105cc       0x40 C:\Users\HP\AppData\Local\Temp\ccd7BBA2.o

.__vector_offset_BF8107A0_data
                0x00000000bf8107a0       0x2c
 .__vector_offset_BF8107A0_data
                0x00000000bf8107a0       0x2c C:\Users\HP\AppData\Local\Temp\ccd7BBA2.o

.__vector_offset_BF8107E4_data
                0x00000000bf8107e4       0x28
 .__vector_offset_BF8107E4_data
                0x00000000bf8107e4       0x28 C:\Users\HP\AppData\Local\Temp\ccd7BBA2.o

.__vector_offset_BF810614_data
                0x00000000bf810614       0x24
 .__vector_offset_BF810614_data
                0x00000000bf810614       0x24 C:\Users\HP\AppData\Local\Temp\ccd7BBA2.o

.__vector_offset_BF8105B8_data
                0x00000000bf8105b8       0x10
 .__vector_offset_BF8105B8_data
                0x00000000bf8105b8       0x10 C:\Users\HP\AppData\Local\Temp\ccd7BBA2.o

.__vector_offset_BF810748_data
                0x00000000bf810748       0x10
 .__vector_offset_BF810748_data
                0x00000000bf810748       0x10 C:\Users\HP\AppData\Local\Temp\ccd7BBA2.o

.__vector_offset_BF810818_data
                0x00000000bf810818       0x10
 .__vector_offset_BF810818_data
                0x00000000bf810818       0x10 C:\Users\HP\AppData\Local\Temp\ccd7BBA2.o

.__vector_offset_BF810924_data
                0x00000000bf810924       0x10
 .__vector_offset_BF810924_data
                0x00000000bf810924       0x10 C:\Users\HP\AppData\Local\Temp\ccd7BBA2.o

.__vector_offset_BF8108F8_data
                0x00000000bf8108f8        0xc
 .__vector_offset_BF8108F8_data
                0x00000000bf8108f8        0xc C:\Users\HP\AppData\Local\Temp\ccd7BBA2.o

.__vector_offset_BF810914_data
                0x00000000bf810914        0xc
 .__vector_offset_BF810914_data
                0x00000000bf810914        0xc C:\Users\HP\AppData\Local\Temp\ccd7BBA2.o

.__vector_offset_BF810788_data
                0x00000000bf810788        0x8
 .__vector_offset_BF810788_data
                0x00000000bf810788        0x8 C:\Users\HP\AppData\Local\Temp\ccd7BBA2.o

.__vector_offset_BF810938_data
                0x00000000bf810938        0x8
 .__vector_offset_BF810938_data
                0x00000000bf810938        0x8 C:\Users\HP\AppData\Local\Temp\ccd7BBA2.o

.__vector_offset_BF8107DC_data
                0x00000000bf8107dc        0x4
 .__vector_offset_BF8107DC_data
                0x00000000bf8107dc        0x4 C:\Users\HP\AppData\Local\Temp\ccd7BBA2.o

.__vector_offset_BF810834_data
                0x00000000bf810834        0x4
 .__vector_offset_BF810834_data
                0x00000000bf810834        0x4 C:\Users\HP\AppData\Local\Temp\ccd7BBA2.o

.__vector_offset_BF8108D8_data
                0x00000000bf8108d8        0x4
 .__vector_offset_BF8108D8_data
                0x00000000bf8108d8        0x4 C:\Users\HP\AppData\Local\Temp\ccd7BBA2.o

.data           0x0000000080000020       0xd0
 .data          0x0000000080000020       0x68 g:/embedded tools/pic/xc32 compiler/bin/bin/../../lib/gcc/pic32mx/8.3.1/../../../../pic32mx/lib/fpu64\libc-musl.a(stdin.o)
                0x0000000080000020                __stdin_used
 .data          0x0000000080000088       0x68 g:/embedded tools/pic/xc32 compiler/bin/bin/../../lib/gcc/pic32mx/8.3.1/../../../../pic32mx/lib/fpu64\libc-musl.a(stdout.o)
                0x0000000080000088                __stdout_used

.data._stdin    0x00000000800000f0        0x4
 .data._stdin   0x00000000800000f0        0x4 g:/embedded tools/pic/xc32 compiler/bin/bin/../../lib/gcc/pic32mx/8.3.1/../../../../pic32mx/lib/fpu64\libc-musl.a(stdin.o)
                0x00000000800000f0                _stdin

.data._stdout   0x00000000800000f4        0x4
 .data._stdout  0x00000000800000f4        0x4 g:/embedded tools/pic/xc32 compiler/bin/bin/../../lib/gcc/pic32mx/8.3.1/../../../../pic32mx/lib/fpu64\libc-musl.a(stdout.o)
                0x00000000800000f4                _stdout

.bss            0x00000000800000f8      0x618
 .bss           0x00000000800000f8      0x408 g:/embedded tools/pic/xc32 compiler/bin/bin/../../lib/gcc/pic32mx/8.3.1/../../../../pic32mx/lib/fpu64\libc-musl.a(stdin.o)
 .bss           0x0000000080000500      0x210 g:/embedded tools/pic/xc32 compiler/bin/bin/../../lib/gcc/pic32mx/8.3.1/../../../../pic32mx/lib/fpu64\libc-musl.a(malloc.o)

.bss            0x0000000080000710       0x74
 .bss           0x0000000080000710       0x50 g:/embedded tools/pic/xc32 compiler/bin/bin/../../lib/gcc/pic32mx/8.3.1/../../../../pic32mx/lib/fpu64\libc-musl.a(libc.o)
                0x0000000080000710                __progname_full
                0x0000000080000710                program_invocation_name
                0x0000000080000714                program_invocation_short_name
                0x0000000080000714                __progname
                0x0000000080000718                __sysinfo
                0x000000008000071c                __hwcap
                0x0000000080000720                __libc
 .bss           0x0000000080000760       0x24 g:/embedded tools/pic/xc32 compiler/bin/bin/../../lib/gcc/pic32mx/8.3.1/../../../../pic32mx/lib/fpu64\libpic32.a(sbrk.o)
                0x000000008000077c                _maxbrk
                0x0000000080000780                _minbrk

.bss.portPinCbObj
                0x0000000080000784        0xc
 .bss.portPinCbObj
                0x0000000080000784        0xc build/default/production/_ext/1865254177/plib_gpio.o

.bss.errno      0x0000000080000790        0x4
 .bss.errno     0x0000000080000790        0x4 g:/embedded tools/pic/xc32 compiler/bin/bin/../../lib/gcc/pic32mx/8.3.1/../../../../pic32mx/lib/fpu64\libpic32.a(errno.o)
                0x0000000080000790                errno

._debug_exception
                0x00000000bfc00480       0x2c
 ._debug_exception
                0x00000000bfc00480       0x2c g:/embedded tools/pic/xc32 compiler/bin/bin/../../lib/gcc/pic32mx/8.3.1/../../../../pic32mx/lib/fpu64\debug-exception-return.o
                0x00000000bfc00480                __DbgExecReturn

.config_BFC03FC0.__config_BFC03FC0
                0x00000000bfc03fc0        0x4
 .config_BFC03FC0.__config_BFC03FC0
                0x00000000bfc03fc0        0x4 build/default/production/_ext/1171490990/initialization.o
                0x00000000bfc03fc0                __config_BFC03FC0

.config_BFC03FC4.__config_BFC03FC4
                0x00000000bfc03fc4        0x4
 .config_BFC03FC4.__config_BFC03FC4
                0x00000000bfc03fc4        0x4 build/default/production/_ext/1171490990/initialization.o
                0x00000000bfc03fc4                __config_BFC03FC4

.config_BFC03FC8.__config_BFC03FC8
                0x00000000bfc03fc8        0x4
 .config_BFC03FC8.__config_BFC03FC8
                0x00000000bfc03fc8        0x4 build/default/production/_ext/1171490990/initialization.o
                0x00000000bfc03fc8                __config_BFC03FC8

.config_BFC03FCC.__config_BFC03FCC
                0x00000000bfc03fcc        0x4
 .config_BFC03FCC.__config_BFC03FCC
                0x00000000bfc03fcc        0x4 build/default/production/_ext/1171490990/initialization.o
                0x00000000bfc03fcc                __config_BFC03FCC

.config_BFC03FF0.__config_BFC03FF0
                0x00000000bfc03ff0        0x4
 .config_BFC03FF0.__config_BFC03FF0
                0x00000000bfc03ff0        0x4 build/default/production/_ext/1171490990/initialization.o
                0x00000000bfc03ff0                __config_BFC03FF0

.dinit          0x000000009d000260      0x4f0
 .dinit         0x000000009d000260      0x4f0 data_init

.text.malloc    0x000000009d000750      0x298
 .text.malloc   0x000000009d000750      0x298 g:/embedded tools/pic/xc32 compiler/bin/bin/../../lib/gcc/pic32mx/8.3.1/../../../../pic32mx/lib/fpu64\libc-musl.a(malloc.o)
                0x000000009d000750                malloc

.text.TIMER_1_Handler
                0x000000009d0009e8      0x1d0
 .text.TIMER_1_Handler
                0x000000009d0009e8      0x1d0 build/default/production/_ext/1171490990/interrupts.o
                0x000000009d0009e8                TIMER_1_Handler

.text.TIMER_3_Handler
                0x000000009d000bb8      0x1d0
 .text.TIMER_3_Handler
                0x000000009d000bb8      0x1d0 build/default/production/_ext/1171490990/interrupts.o
                0x000000009d000bb8                TIMER_3_Handler

.text.CHANGE_NOTICE_A_Handler
                0x000000009d000d88      0x1d0
 .text.CHANGE_NOTICE_A_Handler
                0x000000009d000d88      0x1d0 build/default/production/_ext/1171490990/interrupts.o
                0x000000009d000d88                CHANGE_NOTICE_A_Handler

.text.free      0x000000009d000f58      0x198
 .text.free     0x000000009d000f58      0x198 g:/embedded tools/pic/xc32 compiler/bin/bin/../../lib/gcc/pic32mx/8.3.1/../../../../pic32mx/lib/fpu64\libc-musl.a(malloc.o)
                0x000000009d000f58                free

.text._sbrk_init
                0x000000009d000000      0x154
 .text._sbrk_init
                0x000000009d000000      0x154 g:/embedded tools/pic/xc32 compiler/bin/bin/../../lib/gcc/pic32mx/8.3.1/../../../../pic32mx/lib/fpu64\libpic32.a(sbrk.o)
                0x000000009d000000                _sbrk_init

.text.__write_buffered
                0x000000009d0010f0      0x114
 .text.__write_buffered
                0x000000009d0010f0      0x114 g:/embedded tools/pic/xc32 compiler/bin/bin/../../lib/gcc/pic32mx/8.3.1/../../../../pic32mx/lib/fpu64\libc-musl.a(__stdio_write.o)
                0x000000009d0010f0                __do_write

.text.__stdio_write_buffered
                0x000000009d001204      0x104
 .text.__stdio_write_buffered
                0x000000009d001204      0x104 g:/embedded tools/pic/xc32 compiler/bin/bin/../../lib/gcc/pic32mx/8.3.1/../../../../pic32mx/lib/fpu64\libc-musl.a(__stdio_write.o)
                0x000000009d001204                __stdio_write_buffered

.text.GPIO_Initialize
                0x000000009d001308       0xe8
 .text.GPIO_Initialize
                0x000000009d001308       0xe8 build/default/production/_ext/1865254177/plib_gpio.o
                0x000000009d001308                GPIO_Initialize

.text.general_exception
                0x000000009d0013f0       0xdc
 .text.general_exception
                0x000000009d0013f0       0xdc g:/embedded tools/pic/xc32 compiler/bin/bin/../../lib/gcc/pic32mx/8.3.1/../../../../pic32mx/lib/fpu64\libpic32.a(general-exception.o)
                0x000000009d0013f0                _general_exception_context

.text.main      0x000000009d0014cc       0xd8
 .text.main     0x000000009d0014cc       0xd8 build/default/production/_ext/1360937237/main.o
                0x000000009d0014cc                main

.text.__stdio_read
                0x000000009d0015a4       0xcc
 .text.__stdio_read
                0x000000009d0015a4       0xcc g:/embedded tools/pic/xc32 compiler/bin/bin/../../lib/gcc/pic32mx/8.3.1/../../../../pic32mx/lib/fpu64\libc-musl.a(__stdio_read.o)
                0x000000009d0015a4                __stdio_read

.text.GPIO_PinIntEnable
                0x000000009d001670       0xc8
 .text.GPIO_PinIntEnable
                0x000000009d001670       0xc8 build/default/production/_ext/1865254177/plib_gpio.o
                0x000000009d001670                GPIO_PinIntEnable

.text.__stdio_close_rw
                0x000000009d001738       0xc0
 .text.__stdio_close_rw
                0x000000009d001738       0xc0 g:/embedded tools/pic/xc32 compiler/bin/bin/../../lib/gcc/pic32mx/8.3.1/../../../../pic32mx/lib/fpu64\libc-musl.a(__stdio_close.o)
                0x000000009d001738                __stdio_close_rw

.text.UART1_Read
                0x000000009d0017f8       0xbc
 .text.UART1_Read
                0x000000009d0017f8       0xbc build/default/production/_ext/1865657120/plib_uart1.o
                0x000000009d0017f8                UART1_Read

.text.SYS_Initialize
                0x000000009d0018b4       0xb4
 .text.SYS_Initialize
                0x000000009d0018b4       0xb4 build/default/production/_ext/1171490990/initialization.o
                0x000000009d0018b4                SYS_Initialize

.text.CLK_Initialize
                0x000000009d001968       0xb0
 .text.CLK_Initialize
                0x000000009d001968       0xb0 build/default/production/_ext/60165520/plib_clk.o
                0x000000009d001968                CLK_Initialize

.text._sbrk     0x000000009d001a18       0xb0
 .text._sbrk    0x000000009d001a18       0xb0 g:/embedded tools/pic/xc32 compiler/bin/bin/../../lib/gcc/pic32mx/8.3.1/../../../../pic32mx/lib/fpu64\libpic32.a(sbrk.o)
                0x000000009d001a18                _sbrk

.text.GPIO_PinInterruptCallbackRegister
                0x000000009d001ac8       0xac
 .text.GPIO_PinInterruptCallbackRegister
                0x000000009d001ac8       0xac build/default/production/_ext/1865254177/plib_gpio.o
                0x000000009d001ac8                GPIO_PinInterruptCallbackRegister

.text.setvbuf   0x000000009d001b74       0xac
 .text.setvbuf  0x000000009d001b74       0xac g:/embedded tools/pic/xc32 compiler/bin/bin/../../lib/gcc/pic32mx/8.3.1/../../../../pic32mx/lib/fpu64\libc-musl.a(setvbuf.o)
                0x000000009d001b74                setvbuf

.text.unbin     0x000000009d001c20       0xac
 .text.unbin    0x000000009d001c20       0xac g:/embedded tools/pic/xc32 compiler/bin/bin/../../lib/gcc/pic32mx/8.3.1/../../../../pic32mx/lib/fpu64\libc-musl.a(malloc.o)

.text.__overflow
                0x000000009d001ccc       0x94
 .text.__overflow
                0x000000009d001ccc       0x94 g:/embedded tools/pic/xc32 compiler/bin/bin/../../lib/gcc/pic32mx/8.3.1/../../../../pic32mx/lib/fpu64\libc-musl.a(__overflow.o)
                0x000000009d001ccc                __overflow

.text.CHANGE_NOTICE_A_InterruptHandler
                0x000000009d001d60       0x84
 .text.CHANGE_NOTICE_A_InterruptHandler
                0x000000009d001d60       0x84 build/default/production/_ext/1865254177/plib_gpio.o
                0x000000009d001d60                CHANGE_NOTICE_A_InterruptHandler

.text           0x000000009d001de4       0x7c
 .text          0x000000009d001de4       0x7c g:/embedded tools/pic/xc32 compiler/bin/bin/../../lib/gcc/pic32mx/8.3.1/../../../../pic32mx/lib/fpu64\libpic32.a(pic32_data_init_core.o)
                0x000000009d001de4                __dinit_copy_val_data
                0x000000009d001de4                __dinit_decompress
                0x000000009d001de4                __dinit_copy_emb
                0x000000009d001dec                __pic32_data_init

.text.__readv   0x000000009d001e60       0x7c
 .text.__readv  0x000000009d001e60       0x7c g:/embedded tools/pic/xc32 compiler/bin/bin/../../lib/gcc/pic32mx/8.3.1/../../../../pic32mx/lib/fpu64\libc-musl.a(readv.o)
                0x000000009d001e60                readv

.text.__writev  0x000000009d001edc       0x7c
 .text.__writev
                0x000000009d001edc       0x7c g:/embedded tools/pic/xc32 compiler/bin/bin/../../lib/gcc/pic32mx/8.3.1/../../../../pic32mx/lib/fpu64\libc-musl.a(writev.o)
                0x000000009d001edc                writev

.text.UART1_Write
                0x000000009d001f58       0x74
 .text.UART1_Write
                0x000000009d001f58       0x74 build/default/production/_ext/1865657120/plib_uart1.o
                0x000000009d001f58                UART1_Write

.text.alloc_rev
                0x000000009d001fcc       0x74
 .text.alloc_rev
                0x000000009d001fcc       0x74 g:/embedded tools/pic/xc32 compiler/bin/bin/../../lib/gcc/pic32mx/8.3.1/../../../../pic32mx/lib/fpu64\libc-musl.a(malloc.o)

.text.alloc_fwd
                0x000000009d000190       0x70
 .text.alloc_fwd
                0x000000009d000190       0x70 g:/embedded tools/pic/xc32 compiler/bin/bin/../../lib/gcc/pic32mx/8.3.1/../../../../pic32mx/lib/fpu64\libc-musl.a(malloc.o)

.text.__putc    0x000000009d002040       0x70
 .text.__putc   0x000000009d002040       0x70 g:/embedded tools/pic/xc32 compiler/bin/bin/../../lib/gcc/pic32mx/8.3.1/../../../../pic32mx/lib/fpu64\libc-musl.a(__putc.o)
                0x000000009d002040                __putc
                0x000000009d002040                __putc_needed

.text.tmr_callback
                0x000000009d0020b0       0x64
 .text.tmr_callback
                0x000000009d0020b0       0x64 build/default/production/_ext/1360937237/main.o
                0x000000009d0020b0                tmr_callback

.text.UART1_ErrorClear
                0x000000009d002114       0x60
 .text.UART1_ErrorClear
                0x000000009d002114       0x60 build/default/production/_ext/1865657120/plib_uart1.o

.text.fwrite    0x000000009d002174       0x60
 .text.fwrite   0x000000009d002174       0x60 g:/embedded tools/pic/xc32 compiler/bin/bin/../../lib/gcc/pic32mx/8.3.1/../../../../pic32mx/lib/fpu64\libc-musl.a(fwrite.o)
                0x000000009d002174                fwrite
                0x000000009d002174                fwrite_unlocked

.text.__putc_unbuffered
                0x000000009d0021d4       0x60
 .text.__putc_unbuffered
                0x000000009d0021d4       0x60 g:/embedded tools/pic/xc32 compiler/bin/bin/../../lib/gcc/pic32mx/8.3.1/../../../../pic32mx/lib/fpu64\libc-musl.a(putc.o)
                0x000000009d0021d4                __putc_unbuffered

.text.bin_index
                0x000000009d002234       0x60
 .text.bin_index
                0x000000009d002234       0x60 g:/embedded tools/pic/xc32 compiler/bin/bin/../../lib/gcc/pic32mx/8.3.1/../../../../pic32mx/lib/fpu64\libc-musl.a(malloc.o)

.text.CORETIMER_Start
                0x000000009d002294       0x5c
 .text.CORETIMER_Start
                0x000000009d002294       0x5c build/default/production/_ext/1249264884/plib_coretimer.o
                0x000000009d002294                CORETIMER_Start

.text.fputs     0x000000009d0022f0       0x5c
 .text.fputs    0x000000009d0022f0       0x5c g:/embedded tools/pic/xc32 compiler/bin/bin/../../lib/gcc/pic32mx/8.3.1/../../../../pic32mx/lib/fpu64\libc-musl.a(fputs.o)
                0x000000009d0022f0                fputs_unlocked
                0x000000009d0022f0                fputs

.rodata         0x000000009d00234c       0x5c
 .rodata        0x000000009d00234c       0x5c g:/embedded tools/pic/xc32 compiler/bin/bin/../../lib/gcc/pic32mx/8.3.1/../../../../pic32mx/lib/fpu64\libc-musl.a(malloc.o)

.text.EVIC_Initialize
                0x000000009d0023a8       0x58
 .text.EVIC_Initialize
                0x000000009d0023a8       0x58 build/default/production/_ext/1865200349/plib_evic.o
                0x000000009d0023a8                EVIC_Initialize

.text.adjust_size
                0x000000009d002400       0x58
 .text.adjust_size
                0x000000009d002400       0x58 g:/embedded tools/pic/xc32 compiler/bin/bin/../../lib/gcc/pic32mx/8.3.1/../../../../pic32mx/lib/fpu64\libc-musl.a(malloc.o)

.text.trim      0x000000009d002458       0x58
 .text.trim     0x000000009d002458       0x58 g:/embedded tools/pic/xc32 compiler/bin/bin/../../lib/gcc/pic32mx/8.3.1/../../../../pic32mx/lib/fpu64\libc-musl.a(malloc.o)

.text.gpio_callback
                0x000000009d0024b0       0x54
 .text.gpio_callback
                0x000000009d0024b0       0x54 build/default/production/_ext/1360937237/main.o
                0x000000009d0024b0                gpio_callback

.text.main_entry
                0x000000009d002504       0x54
 .text.main_entry
                0x000000009d002504       0x54 C:\Users\HP\AppData\Local\Temp\ccSwWAzT.o
                0x000000009d002538                __crt0_exit

.text.read      0x000000009d002558       0x4c
 .text.read     0x000000009d002558       0x4c build/default/production/_ext/163028504/xc32_monitor.o
                0x000000009d002558                read

.text.write     0x000000009d0025a4       0x4c
 .text.write    0x000000009d0025a4       0x4c build/default/production/_ext/163028504/xc32_monitor.o
                0x000000009d0025a4                write

.text.puts      0x000000009d0025f0       0x4c
 .text.puts     0x000000009d0025f0       0x4c g:/embedded tools/pic/xc32 compiler/bin/bin/../../lib/gcc/pic32mx/8.3.1/../../../../pic32mx/lib/fpu64\libc-musl.a(puts.o)
                0x000000009d0025f0                puts

.text.TIMER_3_InterruptHandler
                0x000000009d00263c       0x48
 .text.TIMER_3_InterruptHandler
                0x000000009d00263c       0x48 build/default/production/_ext/60181895/plib_tmr3.o
                0x000000009d00263c                TIMER_3_InterruptHandler

.text.TIMER_1_InterruptHandler
                0x000000009d002684       0x48
 .text.TIMER_1_InterruptHandler
                0x000000009d002684       0x48 build/default/production/_ext/1865638794/plib_tmr1.o
                0x000000009d002684                TIMER_1_InterruptHandler

.text           0x000000009d0026cc       0x44
 .text          0x000000009d0026cc       0x44 g:/embedded tools/pic/xc32 compiler/bin/bin/../../lib/gcc/pic32mx/8.3.1/../../../../pic32mx/lib/fpu64\pic32_software_reset.o
                0x000000009d0026cc                __pic32_software_reset

.text.__towrite
                0x000000009d002710       0x44
 .text.__towrite
                0x000000009d002710       0x44 g:/embedded tools/pic/xc32 compiler/bin/bin/../../lib/gcc/pic32mx/8.3.1/../../../../pic32mx/lib/fpu64\libc-musl.a(__towrite.o)
                0x000000009d002710                __towrite

.text.TMR3_Initialize
                0x000000009d002754       0x40
 .text.TMR3_Initialize
                0x000000009d002754       0x40 build/default/production/_ext/60181895/plib_tmr3.o
                0x000000009d002754                TMR3_Initialize

.text.TMR1_Initialize
                0x000000009d002794       0x40
 .text.TMR1_Initialize
                0x000000009d002794       0x40 build/default/production/_ext/1865638794/plib_tmr1.o
                0x000000009d002794                TMR1_Initialize

.text.tmr1_callback
                0x000000009d0027d4       0x3c
 .text.tmr1_callback
                0x000000009d0027d4       0x3c build/default/production/_ext/1360937237/main.o
                0x000000009d0027d4                tmr1_callback

.text.CORETIMER_Initialize
                0x000000009d002810       0x3c
 .text.CORETIMER_Initialize
                0x000000009d002810       0x3c build/default/production/_ext/1249264884/plib_coretimer.o
                0x000000009d002810                CORETIMER_Initialize

.text.__towrite_rw
                0x000000009d00284c       0x3c
 .text.__towrite_rw
                0x000000009d00284c       0x3c g:/embedded tools/pic/xc32 compiler/bin/bin/../../lib/gcc/pic32mx/8.3.1/../../../../pic32mx/lib/fpu64\libc-musl.a(__towrite_rw.o)
                0x000000009d00284c                __towrite_rw
                0x000000009d00284c                __towrite_rw_needed

.text.__expand_heap
                0x000000009d002888       0x3c
 .text.__expand_heap
                0x000000009d002888       0x3c g:/embedded tools/pic/xc32 compiler/bin/bin/../../lib/gcc/pic32mx/8.3.1/../../../../pic32mx/lib/fpu64\libc-musl.a(expand_heap.o)
                0x000000009d002888                __expand_heap

.text           0x000000009d0028c4       0x78
 .text          0x000000009d0028c4       0x3c g:/embedded tools/pic/xc32 compiler/bin/bin/../../lib/gcc/pic32mx/8.3.1/fpu64\libgcc.a(_lshrdi3.o)
                0x000000009d0028c4                __lshrdi3
 .text          0x000000009d002900       0x3c g:/embedded tools/pic/xc32 compiler/bin/bin/../../lib/gcc/pic32mx/8.3.1/fpu64\libgcc.a(_ashldi3.o)
                0x000000009d002900                __ashldi3

.text.UART1_Initialize
                0x000000009d00293c       0x38
 .text.UART1_Initialize
                0x000000009d00293c       0x38 build/default/production/_ext/1865657120/plib_uart1.o
                0x000000009d00293c                UART1_Initialize

.text.lock_bin  0x000000009d002974       0x34
 .text.lock_bin
                0x000000009d002974       0x34 g:/embedded tools/pic/xc32 compiler/bin/bin/../../lib/gcc/pic32mx/8.3.1/../../../../pic32mx/lib/fpu64\libc-musl.a(malloc.o)

.text.__fwrite  0x000000009d0029a8       0x34
 .text.__fwrite
                0x000000009d0029a8       0x34 g:/embedded tools/pic/xc32 compiler/bin/bin/../../lib/gcc/pic32mx/8.3.1/../../../../pic32mx/lib/fpu64\libc-musl.a(__fwrite.o)
                0x000000009d0029a8                __fwrite
                0x000000009d0029a8                __fwrite_needed

.text.strlen    0x000000009d0029dc       0x30
 .text.strlen   0x000000009d0029dc       0x30 g:/embedded tools/pic/xc32 compiler/bin/bin/../../lib/gcc/pic32mx/8.3.1/../../../../pic32mx/lib/fpu64\libc-musl.a(strlen.o)
                0x000000009d0029dc                strlen

.text.memcpy    0x000000009d000154       0x2c
 .text.memcpy   0x000000009d000154       0x2c g:/embedded tools/pic/xc32 compiler/bin/bin/../../lib/gcc/pic32mx/8.3.1/../../../../pic32mx/lib/fpu64\libc-musl.a(memcpy.o)
                0x000000009d000154                memcpy

.text._stub_sbd_memlayout
                0x000000009d002a0c       0x2c
 .text._stub_sbd_memlayout
                0x000000009d002a0c       0x2c g:/embedded tools/pic/xc32 compiler/bin/bin/../../lib/gcc/pic32mx/8.3.1/../../../../pic32mx/lib/fpu64\libpic32.a(sbrk.o)
                0x000000009d002a0c                _sbd_memlayout
                0x000000009d002a0c                _stub_sbd_memlayout

.text.setbuf    0x000000009d002a38       0x24
 .text.setbuf   0x000000009d002a38       0x24 g:/embedded tools/pic/xc32 compiler/bin/bin/../../lib/gcc/pic32mx/8.3.1/../../../../pic32mx/lib/fpu64\libc-musl.a(setbuf.o)
                0x000000009d002a38                setbuf

.rodata.main.str1.4
                0x000000009d002a5c       0x20
 .rodata.main.str1.4
                0x000000009d002a5c       0x20 build/default/production/_ext/1360937237/main.o

.text.__fwrite_min
                0x000000009d002a7c       0x20
 .text.__fwrite_min
                0x000000009d002a7c       0x20 g:/embedded tools/pic/xc32 compiler/bin/bin/../../lib/gcc/pic32mx/8.3.1/../../../../pic32mx/lib/fpu64\libc-musl.a(__out.o)
                0x000000009d002a7c                __stdio_write_unbuffered
                0x000000009d002a7c                __stdio_write

.text           0x000000009d002a9c       0x20
 .text          0x000000009d002a9c       0x20 g:/embedded tools/pic/xc32 compiler/bin/bin/../../lib/gcc/pic32mx/8.3.1/../../../../pic32mx/lib/fpu64\libpic32.a(pic32_data_init_copy.o)
                0x000000009d002a9c                __dinit_copy
                0x000000009d002a9c                __dinit_copy_needed

.text.putc      0x000000009d002abc       0x1c
 .text.putc     0x000000009d002abc       0x1c g:/embedded tools/pic/xc32 compiler/bin/bin/../../lib/gcc/pic32mx/8.3.1/../../../../pic32mx/lib/fpu64\libc-musl.a(putc.o)
                0x000000009d002abc                fputc
                0x000000009d002abc                putc_unlocked
                0x000000009d002abc                putc
                0x000000009d002abc                _IO_putc

.MIPS.abiflags  0x000000009d002ad8       0x18
 .MIPS.abiflags
                0x000000009d002ad8       0x18 g:/embedded tools/pic/xc32 compiler/bin/bin/../../lib/gcc/pic32mx/8.3.1/../../../../pic32mx/lib/fpu64\debug-exception-return.o

.text._general_exception_handler
                0x000000009d002af0       0x18
 .text._general_exception_handler
                0x000000009d002af0       0x18 build/default/production/_ext/1171490990/exceptions.o
                0x000000009d002af0                _general_exception_handler

.text._bootstrap_exception_handler
                0x000000009d002b08       0x18
 .text._bootstrap_exception_handler
                0x000000009d002b08       0x18 build/default/production/_ext/1171490990/exceptions.o
                0x000000009d002b08                _bootstrap_exception_handler

.text           0x000000009d002b20       0x30
 .text          0x000000009d002b20       0x18 g:/embedded tools/pic/xc32 compiler/bin/bin/../../lib/gcc/pic32mx/8.3.1/../../../../pic32mx/lib/fpu64\libpic32.a(default-nmi-handler.o)
                0x000000009d002b20                _nmi_handler
 .text          0x000000009d002b38       0x18 g:/embedded tools/pic/xc32 compiler/bin/bin/../../lib/gcc/pic32mx/8.3.1/../../../../pic32mx/lib/fpu64\libpic32.a(pic32_data_init_clear.o)
                0x000000009d002b38                __dinit_clear_needed
                0x000000009d002b38                __dinit_clear

.text.TMR3_Start
                0x000000009d002b50       0x14
 .text.TMR3_Start
                0x000000009d002b50       0x14 build/default/production/_ext/60181895/plib_tmr3.o
                0x000000009d002b50                TMR3_Start

.text.TMR3_Stop
                0x000000009d002b64       0x14
 .text.TMR3_Stop
                0x000000009d002b64       0x14 build/default/production/_ext/60181895/plib_tmr3.o
                0x000000009d002b64                TMR3_Stop

.text.TMR3_CallbackRegister
                0x000000009d002b78       0x14
 .text.TMR3_CallbackRegister
                0x000000009d002b78       0x14 build/default/production/_ext/60181895/plib_tmr3.o
                0x000000009d002b78                TMR3_CallbackRegister

.text.TMR1_Start
                0x000000009d002b8c       0x14
 .text.TMR1_Start
                0x000000009d002b8c       0x14 build/default/production/_ext/1865638794/plib_tmr1.o
                0x000000009d002b8c                TMR1_Start

.text.TMR1_Stop
                0x000000009d002ba0       0x14
 .text.TMR1_Stop
                0x000000009d002ba0       0x14 build/default/production/_ext/1865638794/plib_tmr1.o
                0x000000009d002ba0                TMR1_Stop

.text.TMR1_CallbackRegister
                0x000000009d002bb4       0x14
 .text.TMR1_CallbackRegister
                0x000000009d002bb4       0x14 build/default/production/_ext/1865638794/plib_tmr1.o
                0x000000009d002bb4                TMR1_CallbackRegister

.rodata         0x000000009d002bc8       0x14
 .rodata        0x000000009d002bc8       0x14 g:/embedded tools/pic/xc32 compiler/bin/bin/../../lib/gcc/pic32mx/8.3.1/../../../../pic32mx/lib/fpu64\libpic32.a(pic32_data_init_core.o)

.rodata.portNumCb
                0x000000009d002bdc        0x8
 .rodata.portNumCb
                0x000000009d002bdc        0x8 build/default/production/_ext/1865254177/plib_gpio.o

.text._on_reset
                0x000000009d002be4        0x8
 .text._on_reset
                0x000000009d002be4        0x8 g:/embedded tools/pic/xc32 compiler/bin/bin/../../lib/gcc/pic32mx/8.3.1/../../../../pic32mx/lib/fpu64\libpic32.a(default-on-reset.o)
                0x000000009d002be4                _on_reset

.text._on_bootstrap
                0x000000009d002bec        0x8
 .text._on_bootstrap
                0x000000009d002bec        0x8 g:/embedded tools/pic/xc32 compiler/bin/bin/../../lib/gcc/pic32mx/8.3.1/../../../../pic32mx/lib/fpu64\libpic32.a(default-on-bootstrap.o)
                0x000000009d002bec                _on_bootstrap

.text.__dummy   0x000000009d002bf4       0x10
 .text.__dummy  0x000000009d002bf4        0x8 g:/embedded tools/pic/xc32 compiler/bin/bin/../../lib/gcc/pic32mx/8.3.1/../../../../pic32mx/lib/fpu64\libc-musl.a(stdin.o)
                0x000000009d002bf4                __stdio_seek_rw
 .text.__dummy  0x000000009d002bfc        0x8 g:/embedded tools/pic/xc32 compiler/bin/bin/../../lib/gcc/pic32mx/8.3.1/../../../../pic32mx/lib/fpu64\libc-musl.a(stdout.o)
                0x000000009d002bfc                __stdio_seek

.text.lseek     0x000000009d002c04        0x8
 .text.lseek    0x000000009d002c04        0x8 g:/embedded tools/pic/xc32 compiler/bin/bin/../../lib/gcc/pic32mx/8.3.1/../../../../pic32mx/lib/fpu64\libpic32.a(lseek.o)
                0x000000009d002c04                lseek

.text.close     0x000000009d002c0c        0x8
 .text.close    0x000000009d002c0c        0x8 g:/embedded tools/pic/xc32 compiler/bin/bin/../../lib/gcc/pic32mx/8.3.1/../../../../pic32mx/lib/fpu64\libpic32.a(close.o)
                0x000000009d002c0c                close
